
80000000 <_wrs_kernel_text_start>:
80000000:	10000003 	b	80000010 <reset>
80000004:	00000000 	nop

80000010 <reset>:
80000010:	40806800 	mtc0	zero,c0_cause
80000014:	40806000 	mtc0	zero,c0_status
80000018:	0c000009 	jal	80000024 <reset+0x14>
8000001c:	00000000 	nop
80000020:	8000e450 	lb	zero,-7088(zero)
80000024:	8ffc0000 	lw	gp,0(ra)
80000028:	3c1d8000 	lui	sp,0x8000
8000002c:	27bd643c 	addiu	sp,sp,25660
80000030:	3c088000 	lui	t0,0x8000
80000034:	25084000 	addiu	t0,t0,16384
80000038:	40887801 	mtc0	t0,$15,1
8000003c:	40086000 	mfc0	t0,c0_status
80000040:	3c09ffbf 	lui	t1,0xffbf
80000044:	3529ffff 	ori	t1,t1,0xffff
80000048:	01094024 	and	t0,t0,t1
8000004c:	40886000 	mtc0	t0,c0_status
80000050:	3c088000 	lui	t0,0x8000
80000054:	25086460 	addiu	t0,t0,25696
80000058:	3c098000 	lui	t1,0x8000
8000005c:	25296880 	addiu	t1,t1,26752
80000060:	ad000000 	sw	zero,0(t0)
80000064:	25080004 	addiu	t0,t0,4
80000068:	0109582a 	slt	t3,t0,t1
8000006c:	1d60fffc 	bgtz	t3,80000060 <reset+0x50>
80000070:	00000000 	nop
80000074:	27bdfff0 	addiu	sp,sp,-16
80000078:	3c198000 	lui	t9,0x8000
8000007c:	273900a0 	addiu	t9,t9,160
80000080:	0320f809 	jalr	t9
80000084:	00000000 	nop
80000088:	0401ffff 	b	80000088 <reset+0x78>
8000008c:	00000000 	nop

80000090 <romExcHandle_280>:
80000090:	1000ffff 	b	80000090 <romExcHandle_280>
80000094:	00000000 	nop

80000098 <romExcHandle_300>:
80000098:	1000ffff 	b	80000098 <romExcHandle_300>
8000009c:	00000000 	nop

800000a0 <kern_init>:
800000a0:	27bdffe8 	addiu	sp,sp,-24
800000a4:	afbf0014 	sw	ra,20(sp)
800000a8:	afbe0010 	sw	s8,16(sp)
800000ac:	03a0f021 	move	s8,sp
800000b0:	0c000947 	jal	8000251c <pic_init>
800000b4:	00000000 	nop
800000b8:	0c00086b 	jal	800021ac <cons_init>
800000bc:	00000000 	nop
800000c0:	0c0007b1 	jal	80001ec4 <clock_init>
800000c4:	00000000 	nop
800000c8:	0c0008ca 	jal	80002328 <intr_enable>
800000cc:	00000000 	nop
800000d0:	3c028000 	lui	v0,0x8000
800000d4:	24443564 	addiu	a0,v0,13668
800000d8:	0c000489 	jal	80001224 <kprintf>
800000dc:	00000000 	nop
800000e0:	1000ffff 	b	800000e0 <kern_init+0x40>
800000e4:	00000000 	nop

800000e8 <__mulu10>:
800000e8:	27bdfff8 	addiu	sp,sp,-8
800000ec:	afbe0004 	sw	s8,4(sp)
800000f0:	03a0f021 	move	s8,sp
800000f4:	afc40008 	sw	a0,8(s8)
800000f8:	8fc20008 	lw	v0,8(s8)
800000fc:	00000000 	nop
80000100:	000218c0 	sll	v1,v0,0x3
80000104:	8fc20008 	lw	v0,8(s8)
80000108:	00000000 	nop
8000010c:	00021040 	sll	v0,v0,0x1
80000110:	00621021 	addu	v0,v1,v0
80000114:	03c0e821 	move	sp,s8
80000118:	8fbe0004 	lw	s8,4(sp)
8000011c:	27bd0008 	addiu	sp,sp,8
80000120:	03e00008 	jr	ra
80000124:	00000000 	nop

80000128 <__divu10>:
80000128:	27bdffe0 	addiu	sp,sp,-32
8000012c:	afbf001c 	sw	ra,28(sp)
80000130:	afbe0018 	sw	s8,24(sp)
80000134:	03a0f021 	move	s8,sp
80000138:	afc40020 	sw	a0,32(s8)
8000013c:	8fc20020 	lw	v0,32(s8)
80000140:	00000000 	nop
80000144:	00021842 	srl	v1,v0,0x1
80000148:	8fc20020 	lw	v0,32(s8)
8000014c:	00000000 	nop
80000150:	00021082 	srl	v0,v0,0x2
80000154:	00621021 	addu	v0,v1,v0
80000158:	afc20010 	sw	v0,16(s8)
8000015c:	8fc20010 	lw	v0,16(s8)
80000160:	00000000 	nop
80000164:	00021102 	srl	v0,v0,0x4
80000168:	8fc30010 	lw	v1,16(s8)
8000016c:	00000000 	nop
80000170:	00621021 	addu	v0,v1,v0
80000174:	afc20010 	sw	v0,16(s8)
80000178:	8fc20010 	lw	v0,16(s8)
8000017c:	00000000 	nop
80000180:	00021202 	srl	v0,v0,0x8
80000184:	8fc30010 	lw	v1,16(s8)
80000188:	00000000 	nop
8000018c:	00621021 	addu	v0,v1,v0
80000190:	afc20010 	sw	v0,16(s8)
80000194:	8fc20010 	lw	v0,16(s8)
80000198:	00000000 	nop
8000019c:	00021402 	srl	v0,v0,0x10
800001a0:	8fc30010 	lw	v1,16(s8)
800001a4:	00000000 	nop
800001a8:	00621021 	addu	v0,v1,v0
800001ac:	afc20010 	sw	v0,16(s8)
800001b0:	8fc20010 	lw	v0,16(s8)
800001b4:	00000000 	nop
800001b8:	000210c2 	srl	v0,v0,0x3
800001bc:	afc20010 	sw	v0,16(s8)
800001c0:	8fc40010 	lw	a0,16(s8)
800001c4:	0c00003a 	jal	800000e8 <__mulu10>
800001c8:	00000000 	nop
800001cc:	00401821 	move	v1,v0
800001d0:	8fc20020 	lw	v0,32(s8)
800001d4:	00000000 	nop
800001d8:	00431023 	subu	v0,v0,v1
800001dc:	afc20014 	sw	v0,20(s8)
800001e0:	8fc20014 	lw	v0,20(s8)
800001e4:	00000000 	nop
800001e8:	24420006 	addiu	v0,v0,6
800001ec:	00021902 	srl	v1,v0,0x4
800001f0:	8fc20010 	lw	v0,16(s8)
800001f4:	00000000 	nop
800001f8:	00621021 	addu	v0,v1,v0
800001fc:	03c0e821 	move	sp,s8
80000200:	8fbf001c 	lw	ra,28(sp)
80000204:	8fbe0018 	lw	s8,24(sp)
80000208:	27bd0020 	addiu	sp,sp,32
8000020c:	03e00008 	jr	ra
80000210:	00000000 	nop

80000214 <getuint>:
80000214:	27bdfff8 	addiu	sp,sp,-8
80000218:	afbe0004 	sw	s8,4(sp)
8000021c:	03a0f021 	move	s8,sp
80000220:	afc40008 	sw	a0,8(s8)
80000224:	afc5000c 	sw	a1,12(s8)
80000228:	8fc4000c 	lw	a0,12(s8)
8000022c:	00000000 	nop
80000230:	28840002 	slti	a0,a0,2
80000234:	14800010 	bnez	a0,80000278 <getuint+0x64>
80000238:	00000000 	nop
8000023c:	8fc20008 	lw	v0,8(s8)
80000240:	00000000 	nop
80000244:	8c420000 	lw	v0,0(v0)
80000248:	00000000 	nop
8000024c:	24430007 	addiu	v1,v0,7
80000250:	2402fff8 	li	v0,-8
80000254:	00621024 	and	v0,v1,v0
80000258:	24440008 	addiu	a0,v0,8
8000025c:	8fc30008 	lw	v1,8(s8)
80000260:	00000000 	nop
80000264:	ac640000 	sw	a0,0(v1)
80000268:	8c430004 	lw	v1,4(v0)
8000026c:	8c420000 	lw	v0,0(v0)
80000270:	1000001f 	b	800002f0 <getuint+0xdc>
80000274:	00000000 	nop
80000278:	8fc4000c 	lw	a0,12(s8)
8000027c:	00000000 	nop
80000280:	1080000f 	beqz	a0,800002c0 <getuint+0xac>
80000284:	00000000 	nop
80000288:	8fc40008 	lw	a0,8(s8)
8000028c:	00000000 	nop
80000290:	8c840000 	lw	a0,0(a0)
80000294:	00000000 	nop
80000298:	24860004 	addiu	a2,a0,4
8000029c:	8fc50008 	lw	a1,8(s8)
800002a0:	00000000 	nop
800002a4:	aca60000 	sw	a2,0(a1)
800002a8:	8c840000 	lw	a0,0(a0)
800002ac:	00000000 	nop
800002b0:	00801021 	move	v0,a0
800002b4:	00001821 	move	v1,zero
800002b8:	1000000d 	b	800002f0 <getuint+0xdc>
800002bc:	00000000 	nop
800002c0:	8fc40008 	lw	a0,8(s8)
800002c4:	00000000 	nop
800002c8:	8c840000 	lw	a0,0(a0)
800002cc:	00000000 	nop
800002d0:	24860004 	addiu	a2,a0,4
800002d4:	8fc50008 	lw	a1,8(s8)
800002d8:	00000000 	nop
800002dc:	aca60000 	sw	a2,0(a1)
800002e0:	8c840000 	lw	a0,0(a0)
800002e4:	00000000 	nop
800002e8:	00801021 	move	v0,a0
800002ec:	00001821 	move	v1,zero
800002f0:	03c0e821 	move	sp,s8
800002f4:	8fbe0004 	lw	s8,4(sp)
800002f8:	27bd0008 	addiu	sp,sp,8
800002fc:	03e00008 	jr	ra
80000300:	00000000 	nop

80000304 <getint>:
80000304:	27bdfff8 	addiu	sp,sp,-8
80000308:	afbe0004 	sw	s8,4(sp)
8000030c:	03a0f021 	move	s8,sp
80000310:	afc40008 	sw	a0,8(s8)
80000314:	afc5000c 	sw	a1,12(s8)
80000318:	8fc4000c 	lw	a0,12(s8)
8000031c:	00000000 	nop
80000320:	28840002 	slti	a0,a0,2
80000324:	14800010 	bnez	a0,80000368 <getint+0x64>
80000328:	00000000 	nop
8000032c:	8fc20008 	lw	v0,8(s8)
80000330:	00000000 	nop
80000334:	8c420000 	lw	v0,0(v0)
80000338:	00000000 	nop
8000033c:	24430007 	addiu	v1,v0,7
80000340:	2402fff8 	li	v0,-8
80000344:	00621024 	and	v0,v1,v0
80000348:	24440008 	addiu	a0,v0,8
8000034c:	8fc30008 	lw	v1,8(s8)
80000350:	00000000 	nop
80000354:	ac640000 	sw	a0,0(v1)
80000358:	8c430004 	lw	v1,4(v0)
8000035c:	8c420000 	lw	v0,0(v0)
80000360:	10000021 	b	800003e8 <getint+0xe4>
80000364:	00000000 	nop
80000368:	8fc4000c 	lw	a0,12(s8)
8000036c:	00000000 	nop
80000370:	10800010 	beqz	a0,800003b4 <getint+0xb0>
80000374:	00000000 	nop
80000378:	8fc40008 	lw	a0,8(s8)
8000037c:	00000000 	nop
80000380:	8c840000 	lw	a0,0(a0)
80000384:	00000000 	nop
80000388:	24860004 	addiu	a2,a0,4
8000038c:	8fc50008 	lw	a1,8(s8)
80000390:	00000000 	nop
80000394:	aca60000 	sw	a2,0(a1)
80000398:	8c840000 	lw	a0,0(a0)
8000039c:	00000000 	nop
800003a0:	00801021 	move	v0,a0
800003a4:	000427c3 	sra	a0,a0,0x1f
800003a8:	00801821 	move	v1,a0
800003ac:	1000000e 	b	800003e8 <getint+0xe4>
800003b0:	00000000 	nop
800003b4:	8fc40008 	lw	a0,8(s8)
800003b8:	00000000 	nop
800003bc:	8c840000 	lw	a0,0(a0)
800003c0:	00000000 	nop
800003c4:	24860004 	addiu	a2,a0,4
800003c8:	8fc50008 	lw	a1,8(s8)
800003cc:	00000000 	nop
800003d0:	aca60000 	sw	a2,0(a1)
800003d4:	8c840000 	lw	a0,0(a0)
800003d8:	00000000 	nop
800003dc:	00801021 	move	v0,a0
800003e0:	000427c3 	sra	a0,a0,0x1f
800003e4:	00801821 	move	v1,a0
800003e8:	03c0e821 	move	sp,s8
800003ec:	8fbe0004 	lw	s8,4(sp)
800003f0:	27bd0008 	addiu	sp,sp,8
800003f4:	03e00008 	jr	ra
800003f8:	00000000 	nop

800003fc <printnum>:
800003fc:	27bdffc8 	addiu	sp,sp,-56
80000400:	afbf0034 	sw	ra,52(sp)
80000404:	afbe0030 	sw	s8,48(sp)
80000408:	03a0f021 	move	s8,sp
8000040c:	afc40038 	sw	a0,56(s8)
80000410:	afc5003c 	sw	a1,60(s8)
80000414:	afc60040 	sw	a2,64(s8)
80000418:	afc70044 	sw	a3,68(s8)
8000041c:	8fc20044 	lw	v0,68(s8)
80000420:	00000000 	nop
80000424:	afc20020 	sw	v0,32(s8)
80000428:	afc00024 	sw	zero,36(s8)
8000042c:	8fc30048 	lw	v1,72(s8)
80000430:	2402000a 	li	v0,10
80000434:	14620012 	bne	v1,v0,80000480 <printnum+0x84>
80000438:	00000000 	nop
8000043c:	8fc40020 	lw	a0,32(s8)
80000440:	0c00004a 	jal	80000128 <__divu10>
80000444:	00000000 	nop
80000448:	afc20028 	sw	v0,40(s8)
8000044c:	8fc40028 	lw	a0,40(s8)
80000450:	0c00003a 	jal	800000e8 <__mulu10>
80000454:	00000000 	nop
80000458:	00401821 	move	v1,v0
8000045c:	8fc20020 	lw	v0,32(s8)
80000460:	00000000 	nop
80000464:	00431023 	subu	v0,v0,v1
80000468:	afc20024 	sw	v0,36(s8)
8000046c:	8fc20028 	lw	v0,40(s8)
80000470:	00000000 	nop
80000474:	afc20020 	sw	v0,32(s8)
80000478:	10000017 	b	800004d8 <printnum+0xdc>
8000047c:	00000000 	nop
80000480:	8fc30048 	lw	v1,72(s8)
80000484:	24020008 	li	v0,8
80000488:	1462000b 	bne	v1,v0,800004b8 <printnum+0xbc>
8000048c:	00000000 	nop
80000490:	8fc20020 	lw	v0,32(s8)
80000494:	00000000 	nop
80000498:	30420007 	andi	v0,v0,0x7
8000049c:	afc20024 	sw	v0,36(s8)
800004a0:	8fc20020 	lw	v0,32(s8)
800004a4:	00000000 	nop
800004a8:	000210c2 	srl	v0,v0,0x3
800004ac:	afc20020 	sw	v0,32(s8)
800004b0:	10000009 	b	800004d8 <printnum+0xdc>
800004b4:	00000000 	nop
800004b8:	8fc20020 	lw	v0,32(s8)
800004bc:	00000000 	nop
800004c0:	3042000f 	andi	v0,v0,0xf
800004c4:	afc20024 	sw	v0,36(s8)
800004c8:	8fc20020 	lw	v0,32(s8)
800004cc:	00000000 	nop
800004d0:	00021102 	srl	v0,v0,0x4
800004d4:	afc20020 	sw	v0,32(s8)
800004d8:	8fc30044 	lw	v1,68(s8)
800004dc:	8fc20048 	lw	v0,72(s8)
800004e0:	00000000 	nop
800004e4:	0062102b 	sltu	v0,v1,v0
800004e8:	14400019 	bnez	v0,80000550 <printnum+0x154>
800004ec:	00000000 	nop
800004f0:	8fc2004c 	lw	v0,76(s8)
800004f4:	00000000 	nop
800004f8:	2442ffff 	addiu	v0,v0,-1
800004fc:	8fc30050 	lw	v1,80(s8)
80000500:	00000000 	nop
80000504:	afa30018 	sw	v1,24(sp)
80000508:	afa20014 	sw	v0,20(sp)
8000050c:	8fc20048 	lw	v0,72(s8)
80000510:	00000000 	nop
80000514:	afa20010 	sw	v0,16(sp)
80000518:	8fc70020 	lw	a3,32(s8)
8000051c:	8fc60040 	lw	a2,64(s8)
80000520:	8fc5003c 	lw	a1,60(s8)
80000524:	8fc40038 	lw	a0,56(s8)
80000528:	0c0000ff 	jal	800003fc <printnum>
8000052c:	00000000 	nop
80000530:	1000000f 	b	80000570 <printnum+0x174>
80000534:	00000000 	nop
80000538:	8fc20038 	lw	v0,56(s8)
8000053c:	8fc6003c 	lw	a2,60(s8)
80000540:	8fc50040 	lw	a1,64(s8)
80000544:	8fc40050 	lw	a0,80(s8)
80000548:	0040f809 	jalr	v0
8000054c:	00000000 	nop
80000550:	8fc2004c 	lw	v0,76(s8)
80000554:	00000000 	nop
80000558:	2442ffff 	addiu	v0,v0,-1
8000055c:	afc2004c 	sw	v0,76(s8)
80000560:	8fc2004c 	lw	v0,76(s8)
80000564:	00000000 	nop
80000568:	1c40fff3 	bgtz	v0,80000538 <printnum+0x13c>
8000056c:	00000000 	nop
80000570:	3c028000 	lui	v0,0x8000
80000574:	24433784 	addiu	v1,v0,14212
80000578:	8fc20024 	lw	v0,36(s8)
8000057c:	00000000 	nop
80000580:	00621021 	addu	v0,v1,v0
80000584:	90420000 	lbu	v0,0(v0)
80000588:	00000000 	nop
8000058c:	00401821 	move	v1,v0
80000590:	8fc20038 	lw	v0,56(s8)
80000594:	8fc6003c 	lw	a2,60(s8)
80000598:	8fc50040 	lw	a1,64(s8)
8000059c:	00602021 	move	a0,v1
800005a0:	0040f809 	jalr	v0
800005a4:	00000000 	nop
800005a8:	00000000 	nop
800005ac:	03c0e821 	move	sp,s8
800005b0:	8fbf0034 	lw	ra,52(sp)
800005b4:	8fbe0030 	lw	s8,48(sp)
800005b8:	27bd0038 	addiu	sp,sp,56
800005bc:	03e00008 	jr	ra
800005c0:	00000000 	nop

800005c4 <vprintfmt>:
800005c4:	27bdffb0 	addiu	sp,sp,-80
800005c8:	afbf004c 	sw	ra,76(sp)
800005cc:	afbe0048 	sw	s8,72(sp)
800005d0:	afb10044 	sw	s1,68(sp)
800005d4:	afb00040 	sw	s0,64(sp)
800005d8:	03a0f021 	move	s8,sp
800005dc:	afc40050 	sw	a0,80(s8)
800005e0:	afc50054 	sw	a1,84(s8)
800005e4:	afc60058 	sw	a2,88(s8)
800005e8:	afc7005c 	sw	a3,92(s8)
800005ec:	10000009 	b	80000614 <vprintfmt+0x50>
800005f0:	00000000 	nop
800005f4:	12000192 	beqz	s0,80000c40 <vprintfmt+0x67c>
800005f8:	00000000 	nop
800005fc:	8fc20050 	lw	v0,80(s8)
80000600:	8fc60054 	lw	a2,84(s8)
80000604:	8fc50058 	lw	a1,88(s8)
80000608:	02002021 	move	a0,s0
8000060c:	0040f809 	jalr	v0
80000610:	00000000 	nop
80000614:	8fc2005c 	lw	v0,92(s8)
80000618:	00000000 	nop
8000061c:	24430001 	addiu	v1,v0,1
80000620:	afc3005c 	sw	v1,92(s8)
80000624:	90420000 	lbu	v0,0(v0)
80000628:	00000000 	nop
8000062c:	00408021 	move	s0,v0
80000630:	24020025 	li	v0,37
80000634:	1602ffef 	bne	s0,v0,800005f4 <vprintfmt+0x30>
80000638:	00000000 	nop
8000063c:	24020020 	li	v0,32
80000640:	a3c2003c 	sb	v0,60(s8)
80000644:	2402ffff 	li	v0,-1
80000648:	afc20030 	sw	v0,48(s8)
8000064c:	8fc20030 	lw	v0,48(s8)
80000650:	00000000 	nop
80000654:	afc2002c 	sw	v0,44(s8)
80000658:	afc00038 	sw	zero,56(s8)
8000065c:	8fc20038 	lw	v0,56(s8)
80000660:	00000000 	nop
80000664:	afc20034 	sw	v0,52(s8)
80000668:	8fc2005c 	lw	v0,92(s8)
8000066c:	00000000 	nop
80000670:	24430001 	addiu	v1,v0,1
80000674:	afc3005c 	sw	v1,92(s8)
80000678:	90420000 	lbu	v0,0(v0)
8000067c:	00000000 	nop
80000680:	00408021 	move	s0,v0
80000684:	2602ffdd 	addiu	v0,s0,-35
80000688:	2c430056 	sltiu	v1,v0,86
8000068c:	10600152 	beqz	v1,80000bd8 <vprintfmt+0x614>
80000690:	00000000 	nop
80000694:	00021880 	sll	v1,v0,0x2
80000698:	3c028000 	lui	v0,0x8000
8000069c:	244237b0 	addiu	v0,v0,14256
800006a0:	00621021 	addu	v0,v1,v0
800006a4:	8c420000 	lw	v0,0(v0)
800006a8:	00000000 	nop
800006ac:	00400008 	jr	v0
800006b0:	00000000 	nop
800006b4:	2402002d 	li	v0,45
800006b8:	a3c2003c 	sb	v0,60(s8)
800006bc:	1000ffea 	b	80000668 <vprintfmt+0xa4>
800006c0:	00000000 	nop
800006c4:	24020030 	li	v0,48
800006c8:	a3c2003c 	sb	v0,60(s8)
800006cc:	1000ffe6 	b	80000668 <vprintfmt+0xa4>
800006d0:	00000000 	nop
800006d4:	afc00030 	sw	zero,48(s8)
800006d8:	8fc20030 	lw	v0,48(s8)
800006dc:	00000000 	nop
800006e0:	00021040 	sll	v0,v0,0x1
800006e4:	00021880 	sll	v1,v0,0x2
800006e8:	00431021 	addu	v0,v0,v1
800006ec:	00501021 	addu	v0,v0,s0
800006f0:	2442ffd0 	addiu	v0,v0,-48
800006f4:	afc20030 	sw	v0,48(s8)
800006f8:	8fc2005c 	lw	v0,92(s8)
800006fc:	00000000 	nop
80000700:	90420000 	lbu	v0,0(v0)
80000704:	00000000 	nop
80000708:	00408021 	move	s0,v0
8000070c:	2a020030 	slti	v0,s0,48
80000710:	1440001e 	bnez	v0,8000078c <vprintfmt+0x1c8>
80000714:	00000000 	nop
80000718:	2a02003a 	slti	v0,s0,58
8000071c:	1040001b 	beqz	v0,8000078c <vprintfmt+0x1c8>
80000720:	00000000 	nop
80000724:	8fc2005c 	lw	v0,92(s8)
80000728:	00000000 	nop
8000072c:	24420001 	addiu	v0,v0,1
80000730:	afc2005c 	sw	v0,92(s8)
80000734:	1000ffe8 	b	800006d8 <vprintfmt+0x114>
80000738:	00000000 	nop
8000073c:	8fc20060 	lw	v0,96(s8)
80000740:	00000000 	nop
80000744:	24430004 	addiu	v1,v0,4
80000748:	afc30060 	sw	v1,96(s8)
8000074c:	8c420000 	lw	v0,0(v0)
80000750:	00000000 	nop
80000754:	afc20030 	sw	v0,48(s8)
80000758:	1000000d 	b	80000790 <vprintfmt+0x1cc>
8000075c:	00000000 	nop
80000760:	8fc2002c 	lw	v0,44(s8)
80000764:	00000000 	nop
80000768:	0441ffbf 	bgez	v0,80000668 <vprintfmt+0xa4>
8000076c:	00000000 	nop
80000770:	afc0002c 	sw	zero,44(s8)
80000774:	1000ffbc 	b	80000668 <vprintfmt+0xa4>
80000778:	00000000 	nop
8000077c:	24020001 	li	v0,1
80000780:	afc20038 	sw	v0,56(s8)
80000784:	1000ffb8 	b	80000668 <vprintfmt+0xa4>
80000788:	00000000 	nop
8000078c:	00000000 	nop
80000790:	8fc2002c 	lw	v0,44(s8)
80000794:	00000000 	nop
80000798:	0441ffb3 	bgez	v0,80000668 <vprintfmt+0xa4>
8000079c:	00000000 	nop
800007a0:	8fc20030 	lw	v0,48(s8)
800007a4:	00000000 	nop
800007a8:	afc2002c 	sw	v0,44(s8)
800007ac:	2402ffff 	li	v0,-1
800007b0:	afc20030 	sw	v0,48(s8)
800007b4:	1000ffac 	b	80000668 <vprintfmt+0xa4>
800007b8:	00000000 	nop
800007bc:	8fc20034 	lw	v0,52(s8)
800007c0:	00000000 	nop
800007c4:	24420001 	addiu	v0,v0,1
800007c8:	afc20034 	sw	v0,52(s8)
800007cc:	1000ffa6 	b	80000668 <vprintfmt+0xa4>
800007d0:	00000000 	nop
800007d4:	8fc20060 	lw	v0,96(s8)
800007d8:	00000000 	nop
800007dc:	24430004 	addiu	v1,v0,4
800007e0:	afc30060 	sw	v1,96(s8)
800007e4:	8c430000 	lw	v1,0(v0)
800007e8:	8fc20050 	lw	v0,80(s8)
800007ec:	8fc60054 	lw	a2,84(s8)
800007f0:	8fc50058 	lw	a1,88(s8)
800007f4:	00602021 	move	a0,v1
800007f8:	0040f809 	jalr	v0
800007fc:	00000000 	nop
80000800:	1000010d 	b	80000c38 <vprintfmt+0x674>
80000804:	00000000 	nop
80000808:	8fc20060 	lw	v0,96(s8)
8000080c:	00000000 	nop
80000810:	24430004 	addiu	v1,v0,4
80000814:	afc30060 	sw	v1,96(s8)
80000818:	8c5f0000 	lw	ra,0(v0)
8000081c:	00000000 	nop
80000820:	07e10002 	bgez	ra,8000082c <vprintfmt+0x268>
80000824:	00000000 	nop
80000828:	001ff823 	negu	ra,ra
8000082c:	2be20019 	slti	v0,ra,25
80000830:	10400009 	beqz	v0,80000858 <vprintfmt+0x294>
80000834:	00000000 	nop
80000838:	3c028000 	lui	v0,0x8000
8000083c:	001f1880 	sll	v1,ra,0x2
80000840:	24423720 	addiu	v0,v0,14112
80000844:	00621021 	addu	v0,v1,v0
80000848:	8c510000 	lw	s1,0(v0)
8000084c:	00000000 	nop
80000850:	1620000b 	bnez	s1,80000880 <vprintfmt+0x2bc>
80000854:	00000000 	nop
80000858:	afbf0010 	sw	ra,16(sp)
8000085c:	3c028000 	lui	v0,0x8000
80000860:	24473798 	addiu	a3,v0,14232
80000864:	8fc60058 	lw	a2,88(s8)
80000868:	8fc50054 	lw	a1,84(s8)
8000086c:	8fc40050 	lw	a0,80(s8)
80000870:	0c000319 	jal	80000c64 <printfmt>
80000874:	00000000 	nop
80000878:	100000ef 	b	80000c38 <vprintfmt+0x674>
8000087c:	00000000 	nop
80000880:	afb10010 	sw	s1,16(sp)
80000884:	3c028000 	lui	v0,0x8000
80000888:	244737a4 	addiu	a3,v0,14244
8000088c:	8fc60058 	lw	a2,88(s8)
80000890:	8fc50054 	lw	a1,84(s8)
80000894:	8fc40050 	lw	a0,80(s8)
80000898:	0c000319 	jal	80000c64 <printfmt>
8000089c:	00000000 	nop
800008a0:	100000e5 	b	80000c38 <vprintfmt+0x674>
800008a4:	00000000 	nop
800008a8:	8fc20060 	lw	v0,96(s8)
800008ac:	00000000 	nop
800008b0:	24430004 	addiu	v1,v0,4
800008b4:	afc30060 	sw	v1,96(s8)
800008b8:	8c510000 	lw	s1,0(v0)
800008bc:	00000000 	nop
800008c0:	16200003 	bnez	s1,800008d0 <vprintfmt+0x30c>
800008c4:	00000000 	nop
800008c8:	3c028000 	lui	v0,0x8000
800008cc:	245137a8 	addiu	s1,v0,14248
800008d0:	8fc2002c 	lw	v0,44(s8)
800008d4:	00000000 	nop
800008d8:	1840003f 	blez	v0,800009d8 <vprintfmt+0x414>
800008dc:	00000000 	nop
800008e0:	93c3003c 	lbu	v1,60(s8)
800008e4:	2402002d 	li	v0,45
800008e8:	1062003b 	beq	v1,v0,800009d8 <vprintfmt+0x414>
800008ec:	00000000 	nop
800008f0:	8fc20030 	lw	v0,48(s8)
800008f4:	00000000 	nop
800008f8:	00402821 	move	a1,v0
800008fc:	02202021 	move	a0,s1
80000900:	0c00058c 	jal	80001630 <strnlen>
80000904:	00000000 	nop
80000908:	00401821 	move	v1,v0
8000090c:	8fc2002c 	lw	v0,44(s8)
80000910:	00000000 	nop
80000914:	00431023 	subu	v0,v0,v1
80000918:	afc2002c 	sw	v0,44(s8)
8000091c:	1000000c 	b	80000950 <vprintfmt+0x38c>
80000920:	00000000 	nop
80000924:	93c3003c 	lbu	v1,60(s8)
80000928:	8fc20050 	lw	v0,80(s8)
8000092c:	8fc60054 	lw	a2,84(s8)
80000930:	8fc50058 	lw	a1,88(s8)
80000934:	00602021 	move	a0,v1
80000938:	0040f809 	jalr	v0
8000093c:	00000000 	nop
80000940:	8fc2002c 	lw	v0,44(s8)
80000944:	00000000 	nop
80000948:	2442ffff 	addiu	v0,v0,-1
8000094c:	afc2002c 	sw	v0,44(s8)
80000950:	8fc2002c 	lw	v0,44(s8)
80000954:	00000000 	nop
80000958:	1c40fff2 	bgtz	v0,80000924 <vprintfmt+0x360>
8000095c:	00000000 	nop
80000960:	1000001d 	b	800009d8 <vprintfmt+0x414>
80000964:	00000000 	nop
80000968:	8fc20038 	lw	v0,56(s8)
8000096c:	00000000 	nop
80000970:	1040000f 	beqz	v0,800009b0 <vprintfmt+0x3ec>
80000974:	00000000 	nop
80000978:	2a020020 	slti	v0,s0,32
8000097c:	14400004 	bnez	v0,80000990 <vprintfmt+0x3cc>
80000980:	00000000 	nop
80000984:	2a02007f 	slti	v0,s0,127
80000988:	14400009 	bnez	v0,800009b0 <vprintfmt+0x3ec>
8000098c:	00000000 	nop
80000990:	8fc20050 	lw	v0,80(s8)
80000994:	8fc60054 	lw	a2,84(s8)
80000998:	8fc50058 	lw	a1,88(s8)
8000099c:	2404003f 	li	a0,63
800009a0:	0040f809 	jalr	v0
800009a4:	00000000 	nop
800009a8:	10000007 	b	800009c8 <vprintfmt+0x404>
800009ac:	00000000 	nop
800009b0:	8fc20050 	lw	v0,80(s8)
800009b4:	8fc60054 	lw	a2,84(s8)
800009b8:	8fc50058 	lw	a1,88(s8)
800009bc:	02002021 	move	a0,s0
800009c0:	0040f809 	jalr	v0
800009c4:	00000000 	nop
800009c8:	8fc2002c 	lw	v0,44(s8)
800009cc:	00000000 	nop
800009d0:	2442ffff 	addiu	v0,v0,-1
800009d4:	afc2002c 	sw	v0,44(s8)
800009d8:	02201021 	move	v0,s1
800009dc:	24510001 	addiu	s1,v0,1
800009e0:	90420000 	lbu	v0,0(v0)
800009e4:	00000000 	nop
800009e8:	00408021 	move	s0,v0
800009ec:	12000019 	beqz	s0,80000a54 <vprintfmt+0x490>
800009f0:	00000000 	nop
800009f4:	8fc20030 	lw	v0,48(s8)
800009f8:	00000000 	nop
800009fc:	0440ffda 	bltz	v0,80000968 <vprintfmt+0x3a4>
80000a00:	00000000 	nop
80000a04:	8fc20030 	lw	v0,48(s8)
80000a08:	00000000 	nop
80000a0c:	2442ffff 	addiu	v0,v0,-1
80000a10:	afc20030 	sw	v0,48(s8)
80000a14:	8fc20030 	lw	v0,48(s8)
80000a18:	00000000 	nop
80000a1c:	0441ffd2 	bgez	v0,80000968 <vprintfmt+0x3a4>
80000a20:	00000000 	nop
80000a24:	1000000b 	b	80000a54 <vprintfmt+0x490>
80000a28:	00000000 	nop
80000a2c:	8fc20050 	lw	v0,80(s8)
80000a30:	8fc60054 	lw	a2,84(s8)
80000a34:	8fc50058 	lw	a1,88(s8)
80000a38:	24040020 	li	a0,32
80000a3c:	0040f809 	jalr	v0
80000a40:	00000000 	nop
80000a44:	8fc2002c 	lw	v0,44(s8)
80000a48:	00000000 	nop
80000a4c:	2442ffff 	addiu	v0,v0,-1
80000a50:	afc2002c 	sw	v0,44(s8)
80000a54:	8fc2002c 	lw	v0,44(s8)
80000a58:	00000000 	nop
80000a5c:	1c40fff3 	bgtz	v0,80000a2c <vprintfmt+0x468>
80000a60:	00000000 	nop
80000a64:	10000074 	b	80000c38 <vprintfmt+0x674>
80000a68:	00000000 	nop
80000a6c:	27c20060 	addiu	v0,s8,96
80000a70:	8fc50034 	lw	a1,52(s8)
80000a74:	00402021 	move	a0,v0
80000a78:	0c0000c1 	jal	80000304 <getint>
80000a7c:	00000000 	nop
80000a80:	afc20020 	sw	v0,32(s8)
80000a84:	afc30024 	sw	v1,36(s8)
80000a88:	8fc20020 	lw	v0,32(s8)
80000a8c:	8fc30024 	lw	v1,36(s8)
80000a90:	00000000 	nop
80000a94:	04610012 	bgez	v1,80000ae0 <vprintfmt+0x51c>
80000a98:	00000000 	nop
80000a9c:	8fc20050 	lw	v0,80(s8)
80000aa0:	8fc60054 	lw	a2,84(s8)
80000aa4:	8fc50058 	lw	a1,88(s8)
80000aa8:	2404002d 	li	a0,45
80000aac:	0040f809 	jalr	v0
80000ab0:	00000000 	nop
80000ab4:	8fc60020 	lw	a2,32(s8)
80000ab8:	8fc70024 	lw	a3,36(s8)
80000abc:	00002021 	move	a0,zero
80000ac0:	00002821 	move	a1,zero
80000ac4:	00861023 	subu	v0,a0,a2
80000ac8:	0082402b 	sltu	t0,a0,v0
80000acc:	00a71823 	subu	v1,a1,a3
80000ad0:	00682023 	subu	a0,v1,t0
80000ad4:	00801821 	move	v1,a0
80000ad8:	afc20020 	sw	v0,32(s8)
80000adc:	afc30024 	sw	v1,36(s8)
80000ae0:	2402000a 	li	v0,10
80000ae4:	afc20028 	sw	v0,40(s8)
80000ae8:	10000022 	b	80000b74 <vprintfmt+0x5b0>
80000aec:	00000000 	nop
80000af0:	8fc20050 	lw	v0,80(s8)
80000af4:	8fc60054 	lw	a2,84(s8)
80000af8:	8fc50058 	lw	a1,88(s8)
80000afc:	24040030 	li	a0,48
80000b00:	0040f809 	jalr	v0
80000b04:	00000000 	nop
80000b08:	8fc20050 	lw	v0,80(s8)
80000b0c:	8fc60054 	lw	a2,84(s8)
80000b10:	8fc50058 	lw	a1,88(s8)
80000b14:	24040078 	li	a0,120
80000b18:	0040f809 	jalr	v0
80000b1c:	00000000 	nop
80000b20:	8fc20060 	lw	v0,96(s8)
80000b24:	00000000 	nop
80000b28:	24430004 	addiu	v1,v0,4
80000b2c:	afc30060 	sw	v1,96(s8)
80000b30:	8c420000 	lw	v0,0(v0)
80000b34:	00000000 	nop
80000b38:	afc20020 	sw	v0,32(s8)
80000b3c:	afc00024 	sw	zero,36(s8)
80000b40:	24020010 	li	v0,16
80000b44:	afc20028 	sw	v0,40(s8)
80000b48:	1000000a 	b	80000b74 <vprintfmt+0x5b0>
80000b4c:	00000000 	nop
80000b50:	27c20060 	addiu	v0,s8,96
80000b54:	8fc50034 	lw	a1,52(s8)
80000b58:	00402021 	move	a0,v0
80000b5c:	0c000085 	jal	80000214 <getuint>
80000b60:	00000000 	nop
80000b64:	afc20020 	sw	v0,32(s8)
80000b68:	afc30024 	sw	v1,36(s8)
80000b6c:	24020010 	li	v0,16
80000b70:	afc20028 	sw	v0,40(s8)
80000b74:	8fc40020 	lw	a0,32(s8)
80000b78:	8fc20028 	lw	v0,40(s8)
80000b7c:	93c3003c 	lbu	v1,60(s8)
80000b80:	00000000 	nop
80000b84:	afa30018 	sw	v1,24(sp)
80000b88:	8fc3002c 	lw	v1,44(s8)
80000b8c:	00000000 	nop
80000b90:	afa30014 	sw	v1,20(sp)
80000b94:	afa20010 	sw	v0,16(sp)
80000b98:	00803821 	move	a3,a0
80000b9c:	8fc60058 	lw	a2,88(s8)
80000ba0:	8fc50054 	lw	a1,84(s8)
80000ba4:	8fc40050 	lw	a0,80(s8)
80000ba8:	0c0000ff 	jal	800003fc <printnum>
80000bac:	00000000 	nop
80000bb0:	10000021 	b	80000c38 <vprintfmt+0x674>
80000bb4:	00000000 	nop
80000bb8:	8fc20050 	lw	v0,80(s8)
80000bbc:	8fc60054 	lw	a2,84(s8)
80000bc0:	8fc50058 	lw	a1,88(s8)
80000bc4:	02002021 	move	a0,s0
80000bc8:	0040f809 	jalr	v0
80000bcc:	00000000 	nop
80000bd0:	10000019 	b	80000c38 <vprintfmt+0x674>
80000bd4:	00000000 	nop
80000bd8:	8fc20050 	lw	v0,80(s8)
80000bdc:	8fc60054 	lw	a2,84(s8)
80000be0:	8fc50058 	lw	a1,88(s8)
80000be4:	24040025 	li	a0,37
80000be8:	0040f809 	jalr	v0
80000bec:	00000000 	nop
80000bf0:	8fc2005c 	lw	v0,92(s8)
80000bf4:	00000000 	nop
80000bf8:	2442ffff 	addiu	v0,v0,-1
80000bfc:	afc2005c 	sw	v0,92(s8)
80000c00:	10000005 	b	80000c18 <vprintfmt+0x654>
80000c04:	00000000 	nop
80000c08:	8fc2005c 	lw	v0,92(s8)
80000c0c:	00000000 	nop
80000c10:	2442ffff 	addiu	v0,v0,-1
80000c14:	afc2005c 	sw	v0,92(s8)
80000c18:	8fc2005c 	lw	v0,92(s8)
80000c1c:	00000000 	nop
80000c20:	2442ffff 	addiu	v0,v0,-1
80000c24:	90430000 	lbu	v1,0(v0)
80000c28:	24020025 	li	v0,37
80000c2c:	1462fff6 	bne	v1,v0,80000c08 <vprintfmt+0x644>
80000c30:	00000000 	nop
80000c34:	00000000 	nop
80000c38:	1000fe6c 	b	800005ec <vprintfmt+0x28>
80000c3c:	00000000 	nop
80000c40:	00000000 	nop
80000c44:	03c0e821 	move	sp,s8
80000c48:	8fbf004c 	lw	ra,76(sp)
80000c4c:	8fbe0048 	lw	s8,72(sp)
80000c50:	8fb10044 	lw	s1,68(sp)
80000c54:	8fb00040 	lw	s0,64(sp)
80000c58:	27bd0050 	addiu	sp,sp,80
80000c5c:	03e00008 	jr	ra
80000c60:	00000000 	nop

80000c64 <printfmt>:
80000c64:	27bdffd8 	addiu	sp,sp,-40
80000c68:	afbf0024 	sw	ra,36(sp)
80000c6c:	afbe0020 	sw	s8,32(sp)
80000c70:	03a0f021 	move	s8,sp
80000c74:	afc40028 	sw	a0,40(s8)
80000c78:	afc5002c 	sw	a1,44(s8)
80000c7c:	afc60030 	sw	a2,48(s8)
80000c80:	afc70034 	sw	a3,52(s8)
80000c84:	27c20038 	addiu	v0,s8,56
80000c88:	afc20018 	sw	v0,24(s8)
80000c8c:	8fc20018 	lw	v0,24(s8)
80000c90:	00000000 	nop
80000c94:	afa20010 	sw	v0,16(sp)
80000c98:	8fc70034 	lw	a3,52(s8)
80000c9c:	8fc60030 	lw	a2,48(s8)
80000ca0:	8fc5002c 	lw	a1,44(s8)
80000ca4:	8fc40028 	lw	a0,40(s8)
80000ca8:	0c000171 	jal	800005c4 <vprintfmt>
80000cac:	00000000 	nop
80000cb0:	00000000 	nop
80000cb4:	03c0e821 	move	sp,s8
80000cb8:	8fbf0024 	lw	ra,36(sp)
80000cbc:	8fbe0020 	lw	s8,32(sp)
80000cc0:	27bd0028 	addiu	sp,sp,40
80000cc4:	03e00008 	jr	ra
80000cc8:	00000000 	nop

80000ccc <sprintputch>:
80000ccc:	27bdfff8 	addiu	sp,sp,-8
80000cd0:	afbe0004 	sw	s8,4(sp)
80000cd4:	03a0f021 	move	s8,sp
80000cd8:	afc40008 	sw	a0,8(s8)
80000cdc:	afc5000c 	sw	a1,12(s8)
80000ce0:	8fc2000c 	lw	v0,12(s8)
80000ce4:	00000000 	nop
80000ce8:	8c420008 	lw	v0,8(v0)
80000cec:	00000000 	nop
80000cf0:	24430001 	addiu	v1,v0,1
80000cf4:	8fc2000c 	lw	v0,12(s8)
80000cf8:	00000000 	nop
80000cfc:	ac430008 	sw	v1,8(v0)
80000d00:	8fc2000c 	lw	v0,12(s8)
80000d04:	00000000 	nop
80000d08:	8c430000 	lw	v1,0(v0)
80000d0c:	8fc2000c 	lw	v0,12(s8)
80000d10:	00000000 	nop
80000d14:	8c420004 	lw	v0,4(v0)
80000d18:	00000000 	nop
80000d1c:	0062102b 	sltu	v0,v1,v0
80000d20:	1040000d 	beqz	v0,80000d58 <sprintputch+0x8c>
80000d24:	00000000 	nop
80000d28:	8fc2000c 	lw	v0,12(s8)
80000d2c:	00000000 	nop
80000d30:	8c420000 	lw	v0,0(v0)
80000d34:	00000000 	nop
80000d38:	24440001 	addiu	a0,v0,1
80000d3c:	8fc3000c 	lw	v1,12(s8)
80000d40:	00000000 	nop
80000d44:	ac640000 	sw	a0,0(v1)
80000d48:	8fc30008 	lw	v1,8(s8)
80000d4c:	00000000 	nop
80000d50:	306300ff 	andi	v1,v1,0xff
80000d54:	a0430000 	sb	v1,0(v0)
80000d58:	00000000 	nop
80000d5c:	03c0e821 	move	sp,s8
80000d60:	8fbe0004 	lw	s8,4(sp)
80000d64:	27bd0008 	addiu	sp,sp,8
80000d68:	03e00008 	jr	ra
80000d6c:	00000000 	nop

80000d70 <snprintf>:
80000d70:	27bdffe0 	addiu	sp,sp,-32
80000d74:	afbf001c 	sw	ra,28(sp)
80000d78:	afbe0018 	sw	s8,24(sp)
80000d7c:	03a0f021 	move	s8,sp
80000d80:	afc40020 	sw	a0,32(s8)
80000d84:	afc50024 	sw	a1,36(s8)
80000d88:	afc60028 	sw	a2,40(s8)
80000d8c:	afc7002c 	sw	a3,44(s8)
80000d90:	27c2002c 	addiu	v0,s8,44
80000d94:	afc20014 	sw	v0,20(s8)
80000d98:	8fc20014 	lw	v0,20(s8)
80000d9c:	00000000 	nop
80000da0:	00403821 	move	a3,v0
80000da4:	8fc60028 	lw	a2,40(s8)
80000da8:	8fc50024 	lw	a1,36(s8)
80000dac:	8fc40020 	lw	a0,32(s8)
80000db0:	0c000376 	jal	80000dd8 <vsnprintf>
80000db4:	00000000 	nop
80000db8:	afc20010 	sw	v0,16(s8)
80000dbc:	8fc20010 	lw	v0,16(s8)
80000dc0:	03c0e821 	move	sp,s8
80000dc4:	8fbf001c 	lw	ra,28(sp)
80000dc8:	8fbe0018 	lw	s8,24(sp)
80000dcc:	27bd0020 	addiu	sp,sp,32
80000dd0:	03e00008 	jr	ra
80000dd4:	00000000 	nop

80000dd8 <vsnprintf>:
80000dd8:	27bdffd0 	addiu	sp,sp,-48
80000ddc:	afbf002c 	sw	ra,44(sp)
80000de0:	afbe0028 	sw	s8,40(sp)
80000de4:	03a0f021 	move	s8,sp
80000de8:	afc40030 	sw	a0,48(s8)
80000dec:	afc50034 	sw	a1,52(s8)
80000df0:	afc60038 	sw	a2,56(s8)
80000df4:	afc7003c 	sw	a3,60(s8)
80000df8:	8fc20030 	lw	v0,48(s8)
80000dfc:	00000000 	nop
80000e00:	afc20018 	sw	v0,24(s8)
80000e04:	8fc20034 	lw	v0,52(s8)
80000e08:	00000000 	nop
80000e0c:	2442ffff 	addiu	v0,v0,-1
80000e10:	8fc30030 	lw	v1,48(s8)
80000e14:	00000000 	nop
80000e18:	00621021 	addu	v0,v1,v0
80000e1c:	afc2001c 	sw	v0,28(s8)
80000e20:	afc00020 	sw	zero,32(s8)
80000e24:	8fc20030 	lw	v0,48(s8)
80000e28:	00000000 	nop
80000e2c:	10400007 	beqz	v0,80000e4c <vsnprintf+0x74>
80000e30:	00000000 	nop
80000e34:	8fc30018 	lw	v1,24(s8)
80000e38:	8fc2001c 	lw	v0,28(s8)
80000e3c:	00000000 	nop
80000e40:	0043102b 	sltu	v0,v0,v1
80000e44:	10400004 	beqz	v0,80000e58 <vsnprintf+0x80>
80000e48:	00000000 	nop
80000e4c:	2402fffd 	li	v0,-3
80000e50:	10000011 	b	80000e98 <vsnprintf+0xc0>
80000e54:	00000000 	nop
80000e58:	8fc2003c 	lw	v0,60(s8)
80000e5c:	00000000 	nop
80000e60:	afa20010 	sw	v0,16(sp)
80000e64:	8fc70038 	lw	a3,56(s8)
80000e68:	27c20018 	addiu	v0,s8,24
80000e6c:	00403021 	move	a2,v0
80000e70:	3c02ffff 	lui	v0,0xffff
80000e74:	34456ad9 	ori	a1,v0,0x6ad9
80000e78:	3c028000 	lui	v0,0x8000
80000e7c:	24440ccc 	addiu	a0,v0,3276
80000e80:	0c000171 	jal	800005c4 <vprintfmt>
80000e84:	00000000 	nop
80000e88:	8fc20018 	lw	v0,24(s8)
80000e8c:	00000000 	nop
80000e90:	a0400000 	sb	zero,0(v0)
80000e94:	8fc20020 	lw	v0,32(s8)
80000e98:	03c0e821 	move	sp,s8
80000e9c:	8fbf002c 	lw	ra,44(sp)
80000ea0:	8fbe0028 	lw	s8,40(sp)
80000ea4:	27bd0030 	addiu	sp,sp,48
80000ea8:	03e00008 	jr	ra
80000eac:	00000000 	nop

80000eb0 <readline>:
80000eb0:	27bdffe0 	addiu	sp,sp,-32
80000eb4:	afbf001c 	sw	ra,28(sp)
80000eb8:	afbe0018 	sw	s8,24(sp)
80000ebc:	03a0f021 	move	s8,sp
80000ec0:	afc40020 	sw	a0,32(s8)
80000ec4:	8fc20020 	lw	v0,32(s8)
80000ec8:	00000000 	nop
80000ecc:	10400004 	beqz	v0,80000ee0 <readline+0x30>
80000ed0:	00000000 	nop
80000ed4:	8fc40020 	lw	a0,32(s8)
80000ed8:	0c000489 	jal	80001224 <kprintf>
80000edc:	00000000 	nop
80000ee0:	afc00010 	sw	zero,16(s8)
80000ee4:	0c000561 	jal	80001584 <getchar>
80000ee8:	00000000 	nop
80000eec:	afc20014 	sw	v0,20(s8)
80000ef0:	8fc20014 	lw	v0,20(s8)
80000ef4:	00000000 	nop
80000ef8:	04410004 	bgez	v0,80000f0c <readline+0x5c>
80000efc:	00000000 	nop
80000f00:	00001021 	move	v0,zero
80000f04:	10000043 	b	80001014 <readline+0x164>
80000f08:	00000000 	nop
80000f0c:	8fc20014 	lw	v0,20(s8)
80000f10:	00000000 	nop
80000f14:	28420020 	slti	v0,v0,32
80000f18:	14400016 	bnez	v0,80000f74 <readline+0xc4>
80000f1c:	00000000 	nop
80000f20:	8fc20010 	lw	v0,16(s8)
80000f24:	00000000 	nop
80000f28:	284203ff 	slti	v0,v0,1023
80000f2c:	10400011 	beqz	v0,80000f74 <readline+0xc4>
80000f30:	00000000 	nop
80000f34:	8fc40014 	lw	a0,20(s8)
80000f38:	0c000529 	jal	800014a4 <kputchar>
80000f3c:	00000000 	nop
80000f40:	8fc20010 	lw	v0,16(s8)
80000f44:	00000000 	nop
80000f48:	24430001 	addiu	v1,v0,1
80000f4c:	afc30010 	sw	v1,16(s8)
80000f50:	8fc30014 	lw	v1,20(s8)
80000f54:	00000000 	nop
80000f58:	306300ff 	andi	v1,v1,0xff
80000f5c:	3c048000 	lui	a0,0x8000
80000f60:	24846460 	addiu	a0,a0,25696
80000f64:	00441021 	addu	v0,v0,a0
80000f68:	a0430000 	sb	v1,0(v0)
80000f6c:	10000027 	b	8000100c <readline+0x15c>
80000f70:	00000000 	nop
80000f74:	8fc30014 	lw	v1,20(s8)
80000f78:	24020008 	li	v0,8
80000f7c:	1462000e 	bne	v1,v0,80000fb8 <readline+0x108>
80000f80:	00000000 	nop
80000f84:	8fc20010 	lw	v0,16(s8)
80000f88:	00000000 	nop
80000f8c:	1840000a 	blez	v0,80000fb8 <readline+0x108>
80000f90:	00000000 	nop
80000f94:	8fc40014 	lw	a0,20(s8)
80000f98:	0c000529 	jal	800014a4 <kputchar>
80000f9c:	00000000 	nop
80000fa0:	8fc20010 	lw	v0,16(s8)
80000fa4:	00000000 	nop
80000fa8:	2442ffff 	addiu	v0,v0,-1
80000fac:	afc20010 	sw	v0,16(s8)
80000fb0:	10000016 	b	8000100c <readline+0x15c>
80000fb4:	00000000 	nop
80000fb8:	8fc30014 	lw	v1,20(s8)
80000fbc:	2402000a 	li	v0,10
80000fc0:	10620005 	beq	v1,v0,80000fd8 <readline+0x128>
80000fc4:	00000000 	nop
80000fc8:	8fc30014 	lw	v1,20(s8)
80000fcc:	2402000d 	li	v0,13
80000fd0:	1462ffc4 	bne	v1,v0,80000ee4 <readline+0x34>
80000fd4:	00000000 	nop
80000fd8:	8fc40014 	lw	a0,20(s8)
80000fdc:	0c000529 	jal	800014a4 <kputchar>
80000fe0:	00000000 	nop
80000fe4:	3c028000 	lui	v0,0x8000
80000fe8:	24436460 	addiu	v1,v0,25696
80000fec:	8fc20010 	lw	v0,16(s8)
80000ff0:	00000000 	nop
80000ff4:	00621021 	addu	v0,v1,v0
80000ff8:	a0400000 	sb	zero,0(v0)
80000ffc:	3c028000 	lui	v0,0x8000
80001000:	24426460 	addiu	v0,v0,25696
80001004:	10000003 	b	80001014 <readline+0x164>
80001008:	00000000 	nop
8000100c:	1000ffb5 	b	80000ee4 <readline+0x34>
80001010:	00000000 	nop
80001014:	03c0e821 	move	sp,s8
80001018:	8fbf001c 	lw	ra,28(sp)
8000101c:	8fbe0018 	lw	s8,24(sp)
80001020:	27bd0020 	addiu	sp,sp,32
80001024:	03e00008 	jr	ra
80001028:	00000000 	nop

8000102c <__mulu10>:
8000102c:	27bdfff8 	addiu	sp,sp,-8
80001030:	afbe0004 	sw	s8,4(sp)
80001034:	03a0f021 	move	s8,sp
80001038:	afc40008 	sw	a0,8(s8)
8000103c:	8fc20008 	lw	v0,8(s8)
80001040:	00000000 	nop
80001044:	000218c0 	sll	v1,v0,0x3
80001048:	8fc20008 	lw	v0,8(s8)
8000104c:	00000000 	nop
80001050:	00021040 	sll	v0,v0,0x1
80001054:	00621021 	addu	v0,v1,v0
80001058:	03c0e821 	move	sp,s8
8000105c:	8fbe0004 	lw	s8,4(sp)
80001060:	27bd0008 	addiu	sp,sp,8
80001064:	03e00008 	jr	ra
80001068:	00000000 	nop

8000106c <__divu10>:
8000106c:	27bdffe0 	addiu	sp,sp,-32
80001070:	afbf001c 	sw	ra,28(sp)
80001074:	afbe0018 	sw	s8,24(sp)
80001078:	03a0f021 	move	s8,sp
8000107c:	afc40020 	sw	a0,32(s8)
80001080:	8fc20020 	lw	v0,32(s8)
80001084:	00000000 	nop
80001088:	00021842 	srl	v1,v0,0x1
8000108c:	8fc20020 	lw	v0,32(s8)
80001090:	00000000 	nop
80001094:	00021082 	srl	v0,v0,0x2
80001098:	00621021 	addu	v0,v1,v0
8000109c:	afc20010 	sw	v0,16(s8)
800010a0:	8fc20010 	lw	v0,16(s8)
800010a4:	00000000 	nop
800010a8:	00021102 	srl	v0,v0,0x4
800010ac:	8fc30010 	lw	v1,16(s8)
800010b0:	00000000 	nop
800010b4:	00621021 	addu	v0,v1,v0
800010b8:	afc20010 	sw	v0,16(s8)
800010bc:	8fc20010 	lw	v0,16(s8)
800010c0:	00000000 	nop
800010c4:	00021202 	srl	v0,v0,0x8
800010c8:	8fc30010 	lw	v1,16(s8)
800010cc:	00000000 	nop
800010d0:	00621021 	addu	v0,v1,v0
800010d4:	afc20010 	sw	v0,16(s8)
800010d8:	8fc20010 	lw	v0,16(s8)
800010dc:	00000000 	nop
800010e0:	00021402 	srl	v0,v0,0x10
800010e4:	8fc30010 	lw	v1,16(s8)
800010e8:	00000000 	nop
800010ec:	00621021 	addu	v0,v1,v0
800010f0:	afc20010 	sw	v0,16(s8)
800010f4:	8fc20010 	lw	v0,16(s8)
800010f8:	00000000 	nop
800010fc:	000210c2 	srl	v0,v0,0x3
80001100:	afc20010 	sw	v0,16(s8)
80001104:	8fc40010 	lw	a0,16(s8)
80001108:	0c00040b 	jal	8000102c <__mulu10>
8000110c:	00000000 	nop
80001110:	00401821 	move	v1,v0
80001114:	8fc20020 	lw	v0,32(s8)
80001118:	00000000 	nop
8000111c:	00431023 	subu	v0,v0,v1
80001120:	afc20014 	sw	v0,20(s8)
80001124:	8fc20014 	lw	v0,20(s8)
80001128:	00000000 	nop
8000112c:	24420006 	addiu	v0,v0,6
80001130:	00021902 	srl	v1,v0,0x4
80001134:	8fc20010 	lw	v0,16(s8)
80001138:	00000000 	nop
8000113c:	00621021 	addu	v0,v1,v0
80001140:	03c0e821 	move	sp,s8
80001144:	8fbf001c 	lw	ra,28(sp)
80001148:	8fbe0018 	lw	s8,24(sp)
8000114c:	27bd0020 	addiu	sp,sp,32
80001150:	03e00008 	jr	ra
80001154:	00000000 	nop

80001158 <cputch>:
80001158:	27bdffe8 	addiu	sp,sp,-24
8000115c:	afbf0014 	sw	ra,20(sp)
80001160:	afbe0010 	sw	s8,16(sp)
80001164:	03a0f021 	move	s8,sp
80001168:	afc40018 	sw	a0,24(s8)
8000116c:	afc5001c 	sw	a1,28(s8)
80001170:	afc60020 	sw	a2,32(s8)
80001174:	8fc40018 	lw	a0,24(s8)
80001178:	0c00087c 	jal	800021f0 <cons_putc>
8000117c:	00000000 	nop
80001180:	8fc2001c 	lw	v0,28(s8)
80001184:	00000000 	nop
80001188:	8c420000 	lw	v0,0(v0)
8000118c:	00000000 	nop
80001190:	24430001 	addiu	v1,v0,1
80001194:	8fc2001c 	lw	v0,28(s8)
80001198:	00000000 	nop
8000119c:	ac430000 	sw	v1,0(v0)
800011a0:	00000000 	nop
800011a4:	03c0e821 	move	sp,s8
800011a8:	8fbf0014 	lw	ra,20(sp)
800011ac:	8fbe0010 	lw	s8,16(sp)
800011b0:	27bd0018 	addiu	sp,sp,24
800011b4:	03e00008 	jr	ra
800011b8:	00000000 	nop

800011bc <vkprintf>:
800011bc:	27bdffd8 	addiu	sp,sp,-40
800011c0:	afbf0024 	sw	ra,36(sp)
800011c4:	afbe0020 	sw	s8,32(sp)
800011c8:	03a0f021 	move	s8,sp
800011cc:	afc40028 	sw	a0,40(s8)
800011d0:	afc5002c 	sw	a1,44(s8)
800011d4:	afc00018 	sw	zero,24(s8)
800011d8:	8fc2002c 	lw	v0,44(s8)
800011dc:	00000000 	nop
800011e0:	afa20010 	sw	v0,16(sp)
800011e4:	8fc70028 	lw	a3,40(s8)
800011e8:	27c20018 	addiu	v0,s8,24
800011ec:	00403021 	move	a2,v0
800011f0:	3c02ffff 	lui	v0,0xffff
800011f4:	34456ad9 	ori	a1,v0,0x6ad9
800011f8:	3c028000 	lui	v0,0x8000
800011fc:	24441158 	addiu	a0,v0,4440
80001200:	0c000171 	jal	800005c4 <vprintfmt>
80001204:	00000000 	nop
80001208:	8fc20018 	lw	v0,24(s8)
8000120c:	03c0e821 	move	sp,s8
80001210:	8fbf0024 	lw	ra,36(sp)
80001214:	8fbe0020 	lw	s8,32(sp)
80001218:	27bd0028 	addiu	sp,sp,40
8000121c:	03e00008 	jr	ra
80001220:	00000000 	nop

80001224 <kprintf>:
80001224:	27bdffe0 	addiu	sp,sp,-32
80001228:	afbf001c 	sw	ra,28(sp)
8000122c:	afbe0018 	sw	s8,24(sp)
80001230:	03a0f021 	move	s8,sp
80001234:	afc40020 	sw	a0,32(s8)
80001238:	afc50024 	sw	a1,36(s8)
8000123c:	afc60028 	sw	a2,40(s8)
80001240:	afc7002c 	sw	a3,44(s8)
80001244:	27c20024 	addiu	v0,s8,36
80001248:	afc20014 	sw	v0,20(s8)
8000124c:	8fc20014 	lw	v0,20(s8)
80001250:	00000000 	nop
80001254:	00402821 	move	a1,v0
80001258:	8fc40020 	lw	a0,32(s8)
8000125c:	0c00046f 	jal	800011bc <vkprintf>
80001260:	00000000 	nop
80001264:	afc20010 	sw	v0,16(s8)
80001268:	8fc20010 	lw	v0,16(s8)
8000126c:	03c0e821 	move	sp,s8
80001270:	8fbf001c 	lw	ra,28(sp)
80001274:	8fbe0018 	lw	s8,24(sp)
80001278:	27bd0020 	addiu	sp,sp,32
8000127c:	03e00008 	jr	ra
80001280:	00000000 	nop

80001284 <printhex>:
80001284:	27bdffd8 	addiu	sp,sp,-40
80001288:	afbf0024 	sw	ra,36(sp)
8000128c:	afbe0020 	sw	s8,32(sp)
80001290:	03a0f021 	move	s8,sp
80001294:	afc40028 	sw	a0,40(s8)
80001298:	afc00010 	sw	zero,16(s8)
8000129c:	a3c0001c 	sb	zero,28(s8)
800012a0:	24020007 	li	v0,7
800012a4:	afc20010 	sw	v0,16(s8)
800012a8:	10000014 	b	800012fc <printhex+0x78>
800012ac:	00000000 	nop
800012b0:	3c028000 	lui	v0,0x8000
800012b4:	8c434420 	lw	v1,17440(v0)
800012b8:	8fc20028 	lw	v0,40(s8)
800012bc:	00000000 	nop
800012c0:	3042000f 	andi	v0,v0,0xf
800012c4:	00621021 	addu	v0,v1,v0
800012c8:	90430000 	lbu	v1,0(v0)
800012cc:	8fc20010 	lw	v0,16(s8)
800012d0:	27c40010 	addiu	a0,s8,16
800012d4:	00821021 	addu	v0,a0,v0
800012d8:	a0430004 	sb	v1,4(v0)
800012dc:	8fc20028 	lw	v0,40(s8)
800012e0:	00000000 	nop
800012e4:	00021102 	srl	v0,v0,0x4
800012e8:	afc20028 	sw	v0,40(s8)
800012ec:	8fc20010 	lw	v0,16(s8)
800012f0:	00000000 	nop
800012f4:	2442ffff 	addiu	v0,v0,-1
800012f8:	afc20010 	sw	v0,16(s8)
800012fc:	8fc20010 	lw	v0,16(s8)
80001300:	00000000 	nop
80001304:	0441ffea 	bgez	v0,800012b0 <printhex+0x2c>
80001308:	00000000 	nop
8000130c:	27c20014 	addiu	v0,s8,20
80001310:	00402021 	move	a0,v0
80001314:	0c000489 	jal	80001224 <kprintf>
80001318:	00000000 	nop
8000131c:	00000000 	nop
80001320:	03c0e821 	move	sp,s8
80001324:	8fbf0024 	lw	ra,36(sp)
80001328:	8fbe0020 	lw	s8,32(sp)
8000132c:	27bd0028 	addiu	sp,sp,40
80001330:	03e00008 	jr	ra
80001334:	00000000 	nop

80001338 <printbase10>:
80001338:	27bdffc8 	addiu	sp,sp,-56
8000133c:	afbf0034 	sw	ra,52(sp)
80001340:	afbe0030 	sw	s8,48(sp)
80001344:	afb1002c 	sw	s1,44(sp)
80001348:	afb00028 	sw	s0,40(sp)
8000134c:	03a0f021 	move	s8,sp
80001350:	afc40038 	sw	a0,56(s8)
80001354:	afc00010 	sw	zero,16(s8)
80001358:	8fc20038 	lw	v0,56(s8)
8000135c:	00000000 	nop
80001360:	04410004 	bgez	v0,80001374 <printbase10+0x3c>
80001364:	00000000 	nop
80001368:	2404002d 	li	a0,45
8000136c:	0c000529 	jal	800014a4 <kputchar>
80001370:	00000000 	nop
80001374:	8fc20038 	lw	v0,56(s8)
80001378:	00000000 	nop
8000137c:	04410002 	bgez	v0,80001388 <printbase10+0x50>
80001380:	00000000 	nop
80001384:	00021023 	negu	v0,v0
80001388:	afc20038 	sw	v0,56(s8)
8000138c:	1000001c 	b	80001400 <printbase10+0xc8>
80001390:	00000000 	nop
80001394:	8fc20038 	lw	v0,56(s8)
80001398:	00000000 	nop
8000139c:	00402021 	move	a0,v0
800013a0:	0c00041b 	jal	8000106c <__divu10>
800013a4:	00000000 	nop
800013a8:	afc20014 	sw	v0,20(s8)
800013ac:	8fd00010 	lw	s0,16(s8)
800013b0:	00000000 	nop
800013b4:	26020001 	addiu	v0,s0,1
800013b8:	afc20010 	sw	v0,16(s8)
800013bc:	8fc20038 	lw	v0,56(s8)
800013c0:	00000000 	nop
800013c4:	305100ff 	andi	s1,v0,0xff
800013c8:	8fc40014 	lw	a0,20(s8)
800013cc:	0c00040b 	jal	8000102c <__mulu10>
800013d0:	00000000 	nop
800013d4:	304200ff 	andi	v0,v0,0xff
800013d8:	02221023 	subu	v0,s1,v0
800013dc:	304200ff 	andi	v0,v0,0xff
800013e0:	24420030 	addiu	v0,v0,48
800013e4:	304300ff 	andi	v1,v0,0xff
800013e8:	27c20010 	addiu	v0,s8,16
800013ec:	00501021 	addu	v0,v0,s0
800013f0:	a0430008 	sb	v1,8(v0)
800013f4:	8fc20014 	lw	v0,20(s8)
800013f8:	00000000 	nop
800013fc:	afc20038 	sw	v0,56(s8)
80001400:	8fc20038 	lw	v0,56(s8)
80001404:	00000000 	nop
80001408:	2842000a 	slti	v0,v0,10
8000140c:	1040ffe1 	beqz	v0,80001394 <printbase10+0x5c>
80001410:	00000000 	nop
80001414:	8fc20038 	lw	v0,56(s8)
80001418:	00000000 	nop
8000141c:	304200ff 	andi	v0,v0,0xff
80001420:	24420030 	addiu	v0,v0,48
80001424:	304300ff 	andi	v1,v0,0xff
80001428:	8fc20010 	lw	v0,16(s8)
8000142c:	27c40010 	addiu	a0,s8,16
80001430:	00821021 	addu	v0,a0,v0
80001434:	a0430008 	sb	v1,8(v0)
80001438:	1000000d 	b	80001470 <printbase10+0x138>
8000143c:	00000000 	nop
80001440:	8fc20010 	lw	v0,16(s8)
80001444:	27c30010 	addiu	v1,s8,16
80001448:	00621021 	addu	v0,v1,v0
8000144c:	90420008 	lbu	v0,8(v0)
80001450:	00000000 	nop
80001454:	00402021 	move	a0,v0
80001458:	0c000529 	jal	800014a4 <kputchar>
8000145c:	00000000 	nop
80001460:	8fc20010 	lw	v0,16(s8)
80001464:	00000000 	nop
80001468:	2442ffff 	addiu	v0,v0,-1
8000146c:	afc20010 	sw	v0,16(s8)
80001470:	8fc20010 	lw	v0,16(s8)
80001474:	00000000 	nop
80001478:	0441fff1 	bgez	v0,80001440 <printbase10+0x108>
8000147c:	00000000 	nop
80001480:	00000000 	nop
80001484:	03c0e821 	move	sp,s8
80001488:	8fbf0034 	lw	ra,52(sp)
8000148c:	8fbe0030 	lw	s8,48(sp)
80001490:	8fb1002c 	lw	s1,44(sp)
80001494:	8fb00028 	lw	s0,40(sp)
80001498:	27bd0038 	addiu	sp,sp,56
8000149c:	03e00008 	jr	ra
800014a0:	00000000 	nop

800014a4 <kputchar>:
800014a4:	27bdffe8 	addiu	sp,sp,-24
800014a8:	afbf0014 	sw	ra,20(sp)
800014ac:	afbe0010 	sw	s8,16(sp)
800014b0:	03a0f021 	move	s8,sp
800014b4:	afc40018 	sw	a0,24(s8)
800014b8:	8fc40018 	lw	a0,24(s8)
800014bc:	0c00087c 	jal	800021f0 <cons_putc>
800014c0:	00000000 	nop
800014c4:	00000000 	nop
800014c8:	03c0e821 	move	sp,s8
800014cc:	8fbf0014 	lw	ra,20(sp)
800014d0:	8fbe0010 	lw	s8,16(sp)
800014d4:	27bd0018 	addiu	sp,sp,24
800014d8:	03e00008 	jr	ra
800014dc:	00000000 	nop

800014e0 <kputs>:
800014e0:	27bdffe0 	addiu	sp,sp,-32
800014e4:	afbf001c 	sw	ra,28(sp)
800014e8:	afbe0018 	sw	s8,24(sp)
800014ec:	03a0f021 	move	s8,sp
800014f0:	afc40020 	sw	a0,32(s8)
800014f4:	afc00014 	sw	zero,20(s8)
800014f8:	10000009 	b	80001520 <kputs+0x40>
800014fc:	00000000 	nop
80001500:	93c30010 	lbu	v1,16(s8)
80001504:	27c40014 	addiu	a0,s8,20
80001508:	3c02ffff 	lui	v0,0xffff
8000150c:	34466ad9 	ori	a2,v0,0x6ad9
80001510:	00802821 	move	a1,a0
80001514:	00602021 	move	a0,v1
80001518:	0c000456 	jal	80001158 <cputch>
8000151c:	00000000 	nop
80001520:	8fc20020 	lw	v0,32(s8)
80001524:	00000000 	nop
80001528:	24430001 	addiu	v1,v0,1
8000152c:	afc30020 	sw	v1,32(s8)
80001530:	90420000 	lbu	v0,0(v0)
80001534:	00000000 	nop
80001538:	a3c20010 	sb	v0,16(s8)
8000153c:	93c20010 	lbu	v0,16(s8)
80001540:	00000000 	nop
80001544:	1440ffee 	bnez	v0,80001500 <kputs+0x20>
80001548:	00000000 	nop
8000154c:	27c30014 	addiu	v1,s8,20
80001550:	3c02ffff 	lui	v0,0xffff
80001554:	34466ad9 	ori	a2,v0,0x6ad9
80001558:	00602821 	move	a1,v1
8000155c:	2404000a 	li	a0,10
80001560:	0c000456 	jal	80001158 <cputch>
80001564:	00000000 	nop
80001568:	8fc20014 	lw	v0,20(s8)
8000156c:	03c0e821 	move	sp,s8
80001570:	8fbf001c 	lw	ra,28(sp)
80001574:	8fbe0018 	lw	s8,24(sp)
80001578:	27bd0020 	addiu	sp,sp,32
8000157c:	03e00008 	jr	ra
80001580:	00000000 	nop

80001584 <getchar>:
80001584:	27bdffe0 	addiu	sp,sp,-32
80001588:	afbf001c 	sw	ra,28(sp)
8000158c:	afbe0018 	sw	s8,24(sp)
80001590:	03a0f021 	move	s8,sp
80001594:	0c00088b 	jal	8000222c <cons_getc>
80001598:	00000000 	nop
8000159c:	afc20010 	sw	v0,16(s8)
800015a0:	8fc20010 	lw	v0,16(s8)
800015a4:	00000000 	nop
800015a8:	1040fffa 	beqz	v0,80001594 <getchar+0x10>
800015ac:	00000000 	nop
800015b0:	8fc20010 	lw	v0,16(s8)
800015b4:	03c0e821 	move	sp,s8
800015b8:	8fbf001c 	lw	ra,28(sp)
800015bc:	8fbe0018 	lw	s8,24(sp)
800015c0:	27bd0020 	addiu	sp,sp,32
800015c4:	03e00008 	jr	ra
800015c8:	00000000 	nop

800015cc <strlen>:
800015cc:	27bdfff0 	addiu	sp,sp,-16
800015d0:	afbe000c 	sw	s8,12(sp)
800015d4:	03a0f021 	move	s8,sp
800015d8:	afc40010 	sw	a0,16(s8)
800015dc:	afc00000 	sw	zero,0(s8)
800015e0:	10000005 	b	800015f8 <strlen+0x2c>
800015e4:	00000000 	nop
800015e8:	8fc20000 	lw	v0,0(s8)
800015ec:	00000000 	nop
800015f0:	24420001 	addiu	v0,v0,1
800015f4:	afc20000 	sw	v0,0(s8)
800015f8:	8fc20010 	lw	v0,16(s8)
800015fc:	00000000 	nop
80001600:	24430001 	addiu	v1,v0,1
80001604:	afc30010 	sw	v1,16(s8)
80001608:	90420000 	lbu	v0,0(v0)
8000160c:	00000000 	nop
80001610:	1440fff5 	bnez	v0,800015e8 <strlen+0x1c>
80001614:	00000000 	nop
80001618:	8fc20000 	lw	v0,0(s8)
8000161c:	03c0e821 	move	sp,s8
80001620:	8fbe000c 	lw	s8,12(sp)
80001624:	27bd0010 	addiu	sp,sp,16
80001628:	03e00008 	jr	ra
8000162c:	00000000 	nop

80001630 <strnlen>:
80001630:	27bdfff0 	addiu	sp,sp,-16
80001634:	afbe000c 	sw	s8,12(sp)
80001638:	03a0f021 	move	s8,sp
8000163c:	afc40010 	sw	a0,16(s8)
80001640:	afc50014 	sw	a1,20(s8)
80001644:	afc00000 	sw	zero,0(s8)
80001648:	10000005 	b	80001660 <strnlen+0x30>
8000164c:	00000000 	nop
80001650:	8fc20000 	lw	v0,0(s8)
80001654:	00000000 	nop
80001658:	24420001 	addiu	v0,v0,1
8000165c:	afc20000 	sw	v0,0(s8)
80001660:	8fc30000 	lw	v1,0(s8)
80001664:	8fc20014 	lw	v0,20(s8)
80001668:	00000000 	nop
8000166c:	0062102b 	sltu	v0,v1,v0
80001670:	10400009 	beqz	v0,80001698 <strnlen+0x68>
80001674:	00000000 	nop
80001678:	8fc20010 	lw	v0,16(s8)
8000167c:	00000000 	nop
80001680:	24430001 	addiu	v1,v0,1
80001684:	afc30010 	sw	v1,16(s8)
80001688:	90420000 	lbu	v0,0(v0)
8000168c:	00000000 	nop
80001690:	1440ffef 	bnez	v0,80001650 <strnlen+0x20>
80001694:	00000000 	nop
80001698:	8fc20000 	lw	v0,0(s8)
8000169c:	03c0e821 	move	sp,s8
800016a0:	8fbe000c 	lw	s8,12(sp)
800016a4:	27bd0010 	addiu	sp,sp,16
800016a8:	03e00008 	jr	ra
800016ac:	00000000 	nop

800016b0 <strcpy>:
800016b0:	27bdfff0 	addiu	sp,sp,-16
800016b4:	afbe000c 	sw	s8,12(sp)
800016b8:	03a0f021 	move	s8,sp
800016bc:	afc40010 	sw	a0,16(s8)
800016c0:	afc50014 	sw	a1,20(s8)
800016c4:	8fc20010 	lw	v0,16(s8)
800016c8:	00000000 	nop
800016cc:	afc20000 	sw	v0,0(s8)
800016d0:	00000000 	nop
800016d4:	8fc20000 	lw	v0,0(s8)
800016d8:	00000000 	nop
800016dc:	24430001 	addiu	v1,v0,1
800016e0:	afc30000 	sw	v1,0(s8)
800016e4:	8fc30014 	lw	v1,20(s8)
800016e8:	00000000 	nop
800016ec:	24640001 	addiu	a0,v1,1
800016f0:	afc40014 	sw	a0,20(s8)
800016f4:	90630000 	lbu	v1,0(v1)
800016f8:	00000000 	nop
800016fc:	a0430000 	sb	v1,0(v0)
80001700:	90420000 	lbu	v0,0(v0)
80001704:	00000000 	nop
80001708:	1440fff2 	bnez	v0,800016d4 <strcpy+0x24>
8000170c:	00000000 	nop
80001710:	8fc20010 	lw	v0,16(s8)
80001714:	03c0e821 	move	sp,s8
80001718:	8fbe000c 	lw	s8,12(sp)
8000171c:	27bd0010 	addiu	sp,sp,16
80001720:	03e00008 	jr	ra
80001724:	00000000 	nop

80001728 <strncpy>:
80001728:	27bdfff0 	addiu	sp,sp,-16
8000172c:	afbe000c 	sw	s8,12(sp)
80001730:	03a0f021 	move	s8,sp
80001734:	afc40010 	sw	a0,16(s8)
80001738:	afc50014 	sw	a1,20(s8)
8000173c:	afc60018 	sw	a2,24(s8)
80001740:	8fc20010 	lw	v0,16(s8)
80001744:	00000000 	nop
80001748:	afc20000 	sw	v0,0(s8)
8000174c:	10000019 	b	800017b4 <strncpy+0x8c>
80001750:	00000000 	nop
80001754:	8fc20014 	lw	v0,20(s8)
80001758:	00000000 	nop
8000175c:	90430000 	lbu	v1,0(v0)
80001760:	8fc20000 	lw	v0,0(s8)
80001764:	00000000 	nop
80001768:	a0430000 	sb	v1,0(v0)
8000176c:	8fc20000 	lw	v0,0(s8)
80001770:	00000000 	nop
80001774:	90420000 	lbu	v0,0(v0)
80001778:	00000000 	nop
8000177c:	10400005 	beqz	v0,80001794 <strncpy+0x6c>
80001780:	00000000 	nop
80001784:	8fc20014 	lw	v0,20(s8)
80001788:	00000000 	nop
8000178c:	24420001 	addiu	v0,v0,1
80001790:	afc20014 	sw	v0,20(s8)
80001794:	8fc20000 	lw	v0,0(s8)
80001798:	00000000 	nop
8000179c:	24420001 	addiu	v0,v0,1
800017a0:	afc20000 	sw	v0,0(s8)
800017a4:	8fc20018 	lw	v0,24(s8)
800017a8:	00000000 	nop
800017ac:	2442ffff 	addiu	v0,v0,-1
800017b0:	afc20018 	sw	v0,24(s8)
800017b4:	8fc20018 	lw	v0,24(s8)
800017b8:	00000000 	nop
800017bc:	1440ffe5 	bnez	v0,80001754 <strncpy+0x2c>
800017c0:	00000000 	nop
800017c4:	8fc20010 	lw	v0,16(s8)
800017c8:	03c0e821 	move	sp,s8
800017cc:	8fbe000c 	lw	s8,12(sp)
800017d0:	27bd0010 	addiu	sp,sp,16
800017d4:	03e00008 	jr	ra
800017d8:	00000000 	nop

800017dc <strcmp>:
800017dc:	27bdfff8 	addiu	sp,sp,-8
800017e0:	afbe0004 	sw	s8,4(sp)
800017e4:	03a0f021 	move	s8,sp
800017e8:	afc40008 	sw	a0,8(s8)
800017ec:	afc5000c 	sw	a1,12(s8)
800017f0:	10000009 	b	80001818 <strcmp+0x3c>
800017f4:	00000000 	nop
800017f8:	8fc20008 	lw	v0,8(s8)
800017fc:	00000000 	nop
80001800:	24420001 	addiu	v0,v0,1
80001804:	afc20008 	sw	v0,8(s8)
80001808:	8fc2000c 	lw	v0,12(s8)
8000180c:	00000000 	nop
80001810:	24420001 	addiu	v0,v0,1
80001814:	afc2000c 	sw	v0,12(s8)
80001818:	8fc20008 	lw	v0,8(s8)
8000181c:	00000000 	nop
80001820:	90420000 	lbu	v0,0(v0)
80001824:	00000000 	nop
80001828:	1040000a 	beqz	v0,80001854 <strcmp+0x78>
8000182c:	00000000 	nop
80001830:	8fc20008 	lw	v0,8(s8)
80001834:	00000000 	nop
80001838:	90430000 	lbu	v1,0(v0)
8000183c:	8fc2000c 	lw	v0,12(s8)
80001840:	00000000 	nop
80001844:	90420000 	lbu	v0,0(v0)
80001848:	00000000 	nop
8000184c:	1062ffea 	beq	v1,v0,800017f8 <strcmp+0x1c>
80001850:	00000000 	nop
80001854:	8fc20008 	lw	v0,8(s8)
80001858:	00000000 	nop
8000185c:	90420000 	lbu	v0,0(v0)
80001860:	00000000 	nop
80001864:	00401821 	move	v1,v0
80001868:	8fc2000c 	lw	v0,12(s8)
8000186c:	00000000 	nop
80001870:	90420000 	lbu	v0,0(v0)
80001874:	00000000 	nop
80001878:	00621023 	subu	v0,v1,v0
8000187c:	03c0e821 	move	sp,s8
80001880:	8fbe0004 	lw	s8,4(sp)
80001884:	27bd0008 	addiu	sp,sp,8
80001888:	03e00008 	jr	ra
8000188c:	00000000 	nop

80001890 <strncmp>:
80001890:	27bdfff8 	addiu	sp,sp,-8
80001894:	afbe0004 	sw	s8,4(sp)
80001898:	03a0f021 	move	s8,sp
8000189c:	afc40008 	sw	a0,8(s8)
800018a0:	afc5000c 	sw	a1,12(s8)
800018a4:	afc60010 	sw	a2,16(s8)
800018a8:	1000000d 	b	800018e0 <strncmp+0x50>
800018ac:	00000000 	nop
800018b0:	8fc20010 	lw	v0,16(s8)
800018b4:	00000000 	nop
800018b8:	2442ffff 	addiu	v0,v0,-1
800018bc:	afc20010 	sw	v0,16(s8)
800018c0:	8fc20008 	lw	v0,8(s8)
800018c4:	00000000 	nop
800018c8:	24420001 	addiu	v0,v0,1
800018cc:	afc20008 	sw	v0,8(s8)
800018d0:	8fc2000c 	lw	v0,12(s8)
800018d4:	00000000 	nop
800018d8:	24420001 	addiu	v0,v0,1
800018dc:	afc2000c 	sw	v0,12(s8)
800018e0:	8fc20010 	lw	v0,16(s8)
800018e4:	00000000 	nop
800018e8:	10400010 	beqz	v0,8000192c <strncmp+0x9c>
800018ec:	00000000 	nop
800018f0:	8fc20008 	lw	v0,8(s8)
800018f4:	00000000 	nop
800018f8:	90420000 	lbu	v0,0(v0)
800018fc:	00000000 	nop
80001900:	1040000a 	beqz	v0,8000192c <strncmp+0x9c>
80001904:	00000000 	nop
80001908:	8fc20008 	lw	v0,8(s8)
8000190c:	00000000 	nop
80001910:	90430000 	lbu	v1,0(v0)
80001914:	8fc2000c 	lw	v0,12(s8)
80001918:	00000000 	nop
8000191c:	90420000 	lbu	v0,0(v0)
80001920:	00000000 	nop
80001924:	1062ffe2 	beq	v1,v0,800018b0 <strncmp+0x20>
80001928:	00000000 	nop
8000192c:	8fc20010 	lw	v0,16(s8)
80001930:	00000000 	nop
80001934:	1040000d 	beqz	v0,8000196c <strncmp+0xdc>
80001938:	00000000 	nop
8000193c:	8fc20008 	lw	v0,8(s8)
80001940:	00000000 	nop
80001944:	90420000 	lbu	v0,0(v0)
80001948:	00000000 	nop
8000194c:	00401821 	move	v1,v0
80001950:	8fc2000c 	lw	v0,12(s8)
80001954:	00000000 	nop
80001958:	90420000 	lbu	v0,0(v0)
8000195c:	00000000 	nop
80001960:	00621023 	subu	v0,v1,v0
80001964:	10000002 	b	80001970 <strncmp+0xe0>
80001968:	00000000 	nop
8000196c:	00001021 	move	v0,zero
80001970:	03c0e821 	move	sp,s8
80001974:	8fbe0004 	lw	s8,4(sp)
80001978:	27bd0008 	addiu	sp,sp,8
8000197c:	03e00008 	jr	ra
80001980:	00000000 	nop

80001984 <strchr>:
80001984:	27bdfff8 	addiu	sp,sp,-8
80001988:	afbe0004 	sw	s8,4(sp)
8000198c:	03a0f021 	move	s8,sp
80001990:	afc40008 	sw	a0,8(s8)
80001994:	00a01021 	move	v0,a1
80001998:	a3c2000c 	sb	v0,12(s8)
8000199c:	1000000f 	b	800019dc <strchr+0x58>
800019a0:	00000000 	nop
800019a4:	8fc20008 	lw	v0,8(s8)
800019a8:	00000000 	nop
800019ac:	90420000 	lbu	v0,0(v0)
800019b0:	93c3000c 	lbu	v1,12(s8)
800019b4:	00000000 	nop
800019b8:	14620004 	bne	v1,v0,800019cc <strchr+0x48>
800019bc:	00000000 	nop
800019c0:	8fc20008 	lw	v0,8(s8)
800019c4:	1000000c 	b	800019f8 <strchr+0x74>
800019c8:	00000000 	nop
800019cc:	8fc20008 	lw	v0,8(s8)
800019d0:	00000000 	nop
800019d4:	24420001 	addiu	v0,v0,1
800019d8:	afc20008 	sw	v0,8(s8)
800019dc:	8fc20008 	lw	v0,8(s8)
800019e0:	00000000 	nop
800019e4:	90420000 	lbu	v0,0(v0)
800019e8:	00000000 	nop
800019ec:	1440ffed 	bnez	v0,800019a4 <strchr+0x20>
800019f0:	00000000 	nop
800019f4:	00001021 	move	v0,zero
800019f8:	03c0e821 	move	sp,s8
800019fc:	8fbe0004 	lw	s8,4(sp)
80001a00:	27bd0008 	addiu	sp,sp,8
80001a04:	03e00008 	jr	ra
80001a08:	00000000 	nop

80001a0c <strfind>:
80001a0c:	27bdfff8 	addiu	sp,sp,-8
80001a10:	afbe0004 	sw	s8,4(sp)
80001a14:	03a0f021 	move	s8,sp
80001a18:	afc40008 	sw	a0,8(s8)
80001a1c:	00a01021 	move	v0,a1
80001a20:	a3c2000c 	sb	v0,12(s8)
80001a24:	1000000c 	b	80001a58 <strfind+0x4c>
80001a28:	00000000 	nop
80001a2c:	8fc20008 	lw	v0,8(s8)
80001a30:	00000000 	nop
80001a34:	90420000 	lbu	v0,0(v0)
80001a38:	93c3000c 	lbu	v1,12(s8)
80001a3c:	00000000 	nop
80001a40:	1062000d 	beq	v1,v0,80001a78 <strfind+0x6c>
80001a44:	00000000 	nop
80001a48:	8fc20008 	lw	v0,8(s8)
80001a4c:	00000000 	nop
80001a50:	24420001 	addiu	v0,v0,1
80001a54:	afc20008 	sw	v0,8(s8)
80001a58:	8fc20008 	lw	v0,8(s8)
80001a5c:	00000000 	nop
80001a60:	90420000 	lbu	v0,0(v0)
80001a64:	00000000 	nop
80001a68:	1440fff0 	bnez	v0,80001a2c <strfind+0x20>
80001a6c:	00000000 	nop
80001a70:	10000002 	b	80001a7c <strfind+0x70>
80001a74:	00000000 	nop
80001a78:	00000000 	nop
80001a7c:	8fc20008 	lw	v0,8(s8)
80001a80:	03c0e821 	move	sp,s8
80001a84:	8fbe0004 	lw	s8,4(sp)
80001a88:	27bd0008 	addiu	sp,sp,8
80001a8c:	03e00008 	jr	ra
80001a90:	00000000 	nop

80001a94 <memset>:
80001a94:	27bdfff0 	addiu	sp,sp,-16
80001a98:	afbe000c 	sw	s8,12(sp)
80001a9c:	03a0f021 	move	s8,sp
80001aa0:	afc40010 	sw	a0,16(s8)
80001aa4:	00a01021 	move	v0,a1
80001aa8:	afc60018 	sw	a2,24(s8)
80001aac:	a3c20014 	sb	v0,20(s8)
80001ab0:	8fc20010 	lw	v0,16(s8)
80001ab4:	00000000 	nop
80001ab8:	afc20000 	sw	v0,0(s8)
80001abc:	10000008 	b	80001ae0 <memset+0x4c>
80001ac0:	00000000 	nop
80001ac4:	8fc20000 	lw	v0,0(s8)
80001ac8:	00000000 	nop
80001acc:	24430001 	addiu	v1,v0,1
80001ad0:	afc30000 	sw	v1,0(s8)
80001ad4:	93c30014 	lbu	v1,20(s8)
80001ad8:	00000000 	nop
80001adc:	a0430000 	sb	v1,0(v0)
80001ae0:	8fc20018 	lw	v0,24(s8)
80001ae4:	00000000 	nop
80001ae8:	2443ffff 	addiu	v1,v0,-1
80001aec:	afc30018 	sw	v1,24(s8)
80001af0:	1440fff4 	bnez	v0,80001ac4 <memset+0x30>
80001af4:	00000000 	nop
80001af8:	8fc20010 	lw	v0,16(s8)
80001afc:	03c0e821 	move	sp,s8
80001b00:	8fbe000c 	lw	s8,12(sp)
80001b04:	27bd0010 	addiu	sp,sp,16
80001b08:	03e00008 	jr	ra
80001b0c:	00000000 	nop

80001b10 <memcpy>:
80001b10:	27bdfff0 	addiu	sp,sp,-16
80001b14:	afbe000c 	sw	s8,12(sp)
80001b18:	03a0f021 	move	s8,sp
80001b1c:	afc40010 	sw	a0,16(s8)
80001b20:	afc50014 	sw	a1,20(s8)
80001b24:	afc60018 	sw	a2,24(s8)
80001b28:	8fc20014 	lw	v0,20(s8)
80001b2c:	00000000 	nop
80001b30:	afc20000 	sw	v0,0(s8)
80001b34:	8fc20010 	lw	v0,16(s8)
80001b38:	00000000 	nop
80001b3c:	afc20004 	sw	v0,4(s8)
80001b40:	1000000c 	b	80001b74 <memcpy+0x64>
80001b44:	00000000 	nop
80001b48:	8fc20004 	lw	v0,4(s8)
80001b4c:	00000000 	nop
80001b50:	24430001 	addiu	v1,v0,1
80001b54:	afc30004 	sw	v1,4(s8)
80001b58:	8fc30000 	lw	v1,0(s8)
80001b5c:	00000000 	nop
80001b60:	24640001 	addiu	a0,v1,1
80001b64:	afc40000 	sw	a0,0(s8)
80001b68:	90630000 	lbu	v1,0(v1)
80001b6c:	00000000 	nop
80001b70:	a0430000 	sb	v1,0(v0)
80001b74:	8fc20018 	lw	v0,24(s8)
80001b78:	00000000 	nop
80001b7c:	2443ffff 	addiu	v1,v0,-1
80001b80:	afc30018 	sw	v1,24(s8)
80001b84:	1440fff0 	bnez	v0,80001b48 <memcpy+0x38>
80001b88:	00000000 	nop
80001b8c:	8fc20010 	lw	v0,16(s8)
80001b90:	03c0e821 	move	sp,s8
80001b94:	8fbe000c 	lw	s8,12(sp)
80001b98:	27bd0010 	addiu	sp,sp,16
80001b9c:	03e00008 	jr	ra
80001ba0:	00000000 	nop

80001ba4 <memmove>:
80001ba4:	27bdfff0 	addiu	sp,sp,-16
80001ba8:	afbe000c 	sw	s8,12(sp)
80001bac:	03a0f021 	move	s8,sp
80001bb0:	afc40010 	sw	a0,16(s8)
80001bb4:	afc50014 	sw	a1,20(s8)
80001bb8:	afc60018 	sw	a2,24(s8)
80001bbc:	8fc20014 	lw	v0,20(s8)
80001bc0:	00000000 	nop
80001bc4:	afc20000 	sw	v0,0(s8)
80001bc8:	8fc20010 	lw	v0,16(s8)
80001bcc:	00000000 	nop
80001bd0:	afc20004 	sw	v0,4(s8)
80001bd4:	8fc30000 	lw	v1,0(s8)
80001bd8:	8fc20004 	lw	v0,4(s8)
80001bdc:	00000000 	nop
80001be0:	0062102b 	sltu	v0,v1,v0
80001be4:	10400037 	beqz	v0,80001cc4 <memmove+0x120>
80001be8:	00000000 	nop
80001bec:	8fc30000 	lw	v1,0(s8)
80001bf0:	8fc20018 	lw	v0,24(s8)
80001bf4:	00000000 	nop
80001bf8:	00621821 	addu	v1,v1,v0
80001bfc:	8fc20004 	lw	v0,4(s8)
80001c00:	00000000 	nop
80001c04:	0043102b 	sltu	v0,v0,v1
80001c08:	1040002e 	beqz	v0,80001cc4 <memmove+0x120>
80001c0c:	00000000 	nop
80001c10:	8fc30000 	lw	v1,0(s8)
80001c14:	8fc20018 	lw	v0,24(s8)
80001c18:	00000000 	nop
80001c1c:	00621021 	addu	v0,v1,v0
80001c20:	afc20000 	sw	v0,0(s8)
80001c24:	8fc30004 	lw	v1,4(s8)
80001c28:	8fc20018 	lw	v0,24(s8)
80001c2c:	00000000 	nop
80001c30:	00621021 	addu	v0,v1,v0
80001c34:	afc20004 	sw	v0,4(s8)
80001c38:	1000000f 	b	80001c78 <memmove+0xd4>
80001c3c:	00000000 	nop
80001c40:	8fc20004 	lw	v0,4(s8)
80001c44:	00000000 	nop
80001c48:	2442ffff 	addiu	v0,v0,-1
80001c4c:	afc20004 	sw	v0,4(s8)
80001c50:	8fc20000 	lw	v0,0(s8)
80001c54:	00000000 	nop
80001c58:	2442ffff 	addiu	v0,v0,-1
80001c5c:	afc20000 	sw	v0,0(s8)
80001c60:	8fc20000 	lw	v0,0(s8)
80001c64:	00000000 	nop
80001c68:	90430000 	lbu	v1,0(v0)
80001c6c:	8fc20004 	lw	v0,4(s8)
80001c70:	00000000 	nop
80001c74:	a0430000 	sb	v1,0(v0)
80001c78:	8fc20018 	lw	v0,24(s8)
80001c7c:	00000000 	nop
80001c80:	2443ffff 	addiu	v1,v0,-1
80001c84:	afc30018 	sw	v1,24(s8)
80001c88:	1440ffed 	bnez	v0,80001c40 <memmove+0x9c>
80001c8c:	00000000 	nop
80001c90:	10000012 	b	80001cdc <memmove+0x138>
80001c94:	00000000 	nop
80001c98:	8fc20004 	lw	v0,4(s8)
80001c9c:	00000000 	nop
80001ca0:	24430001 	addiu	v1,v0,1
80001ca4:	afc30004 	sw	v1,4(s8)
80001ca8:	8fc30000 	lw	v1,0(s8)
80001cac:	00000000 	nop
80001cb0:	24640001 	addiu	a0,v1,1
80001cb4:	afc40000 	sw	a0,0(s8)
80001cb8:	90630000 	lbu	v1,0(v1)
80001cbc:	00000000 	nop
80001cc0:	a0430000 	sb	v1,0(v0)
80001cc4:	8fc20018 	lw	v0,24(s8)
80001cc8:	00000000 	nop
80001ccc:	2443ffff 	addiu	v1,v0,-1
80001cd0:	afc30018 	sw	v1,24(s8)
80001cd4:	1440fff0 	bnez	v0,80001c98 <memmove+0xf4>
80001cd8:	00000000 	nop
80001cdc:	8fc20010 	lw	v0,16(s8)
80001ce0:	03c0e821 	move	sp,s8
80001ce4:	8fbe000c 	lw	s8,12(sp)
80001ce8:	27bd0010 	addiu	sp,sp,16
80001cec:	03e00008 	jr	ra
80001cf0:	00000000 	nop

80001cf4 <memcmp>:
80001cf4:	27bdfff0 	addiu	sp,sp,-16
80001cf8:	afbe000c 	sw	s8,12(sp)
80001cfc:	03a0f021 	move	s8,sp
80001d00:	afc40010 	sw	a0,16(s8)
80001d04:	afc50014 	sw	a1,20(s8)
80001d08:	afc60018 	sw	a2,24(s8)
80001d0c:	8fc20010 	lw	v0,16(s8)
80001d10:	00000000 	nop
80001d14:	afc20000 	sw	v0,0(s8)
80001d18:	8fc20014 	lw	v0,20(s8)
80001d1c:	00000000 	nop
80001d20:	afc20004 	sw	v0,4(s8)
80001d24:	1000001e 	b	80001da0 <memcmp+0xac>
80001d28:	00000000 	nop
80001d2c:	8fc20000 	lw	v0,0(s8)
80001d30:	00000000 	nop
80001d34:	90430000 	lbu	v1,0(v0)
80001d38:	8fc20004 	lw	v0,4(s8)
80001d3c:	00000000 	nop
80001d40:	90420000 	lbu	v0,0(v0)
80001d44:	00000000 	nop
80001d48:	1062000d 	beq	v1,v0,80001d80 <memcmp+0x8c>
80001d4c:	00000000 	nop
80001d50:	8fc20000 	lw	v0,0(s8)
80001d54:	00000000 	nop
80001d58:	90420000 	lbu	v0,0(v0)
80001d5c:	00000000 	nop
80001d60:	00401821 	move	v1,v0
80001d64:	8fc20004 	lw	v0,4(s8)
80001d68:	00000000 	nop
80001d6c:	90420000 	lbu	v0,0(v0)
80001d70:	00000000 	nop
80001d74:	00621023 	subu	v0,v1,v0
80001d78:	10000010 	b	80001dbc <memcmp+0xc8>
80001d7c:	00000000 	nop
80001d80:	8fc20000 	lw	v0,0(s8)
80001d84:	00000000 	nop
80001d88:	24420001 	addiu	v0,v0,1
80001d8c:	afc20000 	sw	v0,0(s8)
80001d90:	8fc20004 	lw	v0,4(s8)
80001d94:	00000000 	nop
80001d98:	24420001 	addiu	v0,v0,1
80001d9c:	afc20004 	sw	v0,4(s8)
80001da0:	8fc20018 	lw	v0,24(s8)
80001da4:	00000000 	nop
80001da8:	2443ffff 	addiu	v1,v0,-1
80001dac:	afc30018 	sw	v1,24(s8)
80001db0:	1440ffde 	bnez	v0,80001d2c <memcmp+0x38>
80001db4:	00000000 	nop
80001db8:	00001021 	move	v0,zero
80001dbc:	03c0e821 	move	sp,s8
80001dc0:	8fbe000c 	lw	s8,12(sp)
80001dc4:	27bd0010 	addiu	sp,sp,16
80001dc8:	03e00008 	jr	ra
80001dcc:	00000000 	nop

80001dd0 <reload_timer>:
80001dd0:	27bdfff0 	addiu	sp,sp,-16
80001dd4:	afbe000c 	sw	s8,12(sp)
80001dd8:	03a0f021 	move	s8,sp
80001ddc:	40024800 	mfc0	v0,c0_count
80001de0:	00000000 	nop
80001de4:	afc20000 	sw	v0,0(s8)
80001de8:	8fc20000 	lw	v0,0(s8)
80001dec:	00000000 	nop
80001df0:	afc20004 	sw	v0,4(s8)
80001df4:	8fc30004 	lw	v1,4(s8)
80001df8:	3c020013 	lui	v0,0x13
80001dfc:	344212d0 	ori	v0,v0,0x12d0
80001e00:	00621021 	addu	v0,v1,v0
80001e04:	afc20004 	sw	v0,4(s8)
80001e08:	8fc20004 	lw	v0,4(s8)
80001e0c:	00000000 	nop
80001e10:	40825800 	mtc0	v0,c0_compare
80001e14:	3c028000 	lui	v0,0x8000
80001e18:	8fc30004 	lw	v1,4(s8)
80001e1c:	00000000 	nop
80001e20:	ac43686c 	sw	v1,26732(v0)
80001e24:	00000000 	nop
80001e28:	03c0e821 	move	sp,s8
80001e2c:	8fbe000c 	lw	s8,12(sp)
80001e30:	27bd0010 	addiu	sp,sp,16
80001e34:	03e00008 	jr	ra
80001e38:	00000000 	nop

80001e3c <clock_int_handler>:
80001e3c:	27bdffe8 	addiu	sp,sp,-24
80001e40:	afbf0014 	sw	ra,20(sp)
80001e44:	afbe0010 	sw	s8,16(sp)
80001e48:	03a0f021 	move	s8,sp
80001e4c:	afc40018 	sw	a0,24(s8)
80001e50:	3c028000 	lui	v0,0x8000
80001e54:	8c426870 	lw	v0,26736(v0)
80001e58:	00000000 	nop
80001e5c:	24430001 	addiu	v1,v0,1
80001e60:	3c028000 	lui	v0,0x8000
80001e64:	ac436870 	sw	v1,26736(v0)
80001e68:	3c028000 	lui	v0,0x8000
80001e6c:	8c426870 	lw	v0,26736(v0)
80001e70:	00000000 	nop
80001e74:	3042001f 	andi	v0,v0,0x1f
80001e78:	14400009 	bnez	v0,80001ea0 <clock_int_handler+0x64>
80001e7c:	00000000 	nop
80001e80:	3c028000 	lui	v0,0x8000
80001e84:	8c426870 	lw	v0,26736(v0)
80001e88:	00000000 	nop
80001e8c:	00402821 	move	a1,v0
80001e90:	3c028000 	lui	v0,0x8000
80001e94:	2444391c 	addiu	a0,v0,14620
80001e98:	0c000489 	jal	80001224 <kprintf>
80001e9c:	00000000 	nop
80001ea0:	0c000774 	jal	80001dd0 <reload_timer>
80001ea4:	00000000 	nop
80001ea8:	00001021 	move	v0,zero
80001eac:	03c0e821 	move	sp,s8
80001eb0:	8fbf0014 	lw	ra,20(sp)
80001eb4:	8fbe0010 	lw	s8,16(sp)
80001eb8:	27bd0018 	addiu	sp,sp,24
80001ebc:	03e00008 	jr	ra
80001ec0:	00000000 	nop

80001ec4 <clock_init>:
80001ec4:	27bdffe8 	addiu	sp,sp,-24
80001ec8:	afbf0014 	sw	ra,20(sp)
80001ecc:	afbe0010 	sw	s8,16(sp)
80001ed0:	03a0f021 	move	s8,sp
80001ed4:	0c000774 	jal	80001dd0 <reload_timer>
80001ed8:	00000000 	nop
80001edc:	24040007 	li	a0,7
80001ee0:	0c0008f0 	jal	800023c0 <pic_enable>
80001ee4:	00000000 	nop
80001ee8:	3c028000 	lui	v0,0x8000
80001eec:	24443920 	addiu	a0,v0,14624
80001ef0:	0c000489 	jal	80001224 <kprintf>
80001ef4:	00000000 	nop
80001ef8:	00000000 	nop
80001efc:	03c0e821 	move	sp,s8
80001f00:	8fbf0014 	lw	ra,20(sp)
80001f04:	8fbe0010 	lw	s8,16(sp)
80001f08:	27bd0018 	addiu	sp,sp,24
80001f0c:	03e00008 	jr	ra
80001f10:	00000000 	nop

80001f14 <delay>:
80001f14:	27bdfff8 	addiu	sp,sp,-8
80001f18:	afbe0004 	sw	s8,4(sp)
80001f1c:	03a0f021 	move	s8,sp
80001f20:	00000000 	nop
80001f24:	03c0e821 	move	sp,s8
80001f28:	8fbe0004 	lw	s8,4(sp)
80001f2c:	27bd0008 	addiu	sp,sp,8
80001f30:	03e00008 	jr	ra
80001f34:	00000000 	nop

80001f38 <serial_init>:
80001f38:	27bdfff0 	addiu	sp,sp,-16
80001f3c:	afbe000c 	sw	s8,12(sp)
80001f40:	03a0f021 	move	s8,sp
80001f44:	3c02bfd0 	lui	v0,0xbfd0
80001f48:	344203f8 	ori	v0,v0,0x3f8
80001f4c:	afc20000 	sw	v0,0(s8)
80001f50:	3c028000 	lui	v0,0x8000
80001f54:	8c426860 	lw	v0,26720(v0)
80001f58:	00000000 	nop
80001f5c:	14400006 	bnez	v0,80001f78 <serial_init+0x40>
80001f60:	00000000 	nop
80001f64:	3c028000 	lui	v0,0x8000
80001f68:	24030001 	li	v1,1
80001f6c:	ac436860 	sw	v1,26720(v0)
80001f70:	10000002 	b	80001f7c <serial_init+0x44>
80001f74:	00000000 	nop
80001f78:	00000000 	nop
80001f7c:	03c0e821 	move	sp,s8
80001f80:	8fbe000c 	lw	s8,12(sp)
80001f84:	27bd0010 	addiu	sp,sp,16
80001f88:	03e00008 	jr	ra
80001f8c:	00000000 	nop

80001f90 <serial_putc_sub>:
80001f90:	27bdffd8 	addiu	sp,sp,-40
80001f94:	afbe0024 	sw	s8,36(sp)
80001f98:	03a0f021 	move	s8,sp
80001f9c:	afc40028 	sw	a0,40(s8)
80001fa0:	00000000 	nop
80001fa4:	3c02bfd0 	lui	v0,0xbfd0
80001fa8:	344203fc 	ori	v0,v0,0x3fc
80001fac:	afc2000c 	sw	v0,12(s8)
80001fb0:	8fc2000c 	lw	v0,12(s8)
80001fb4:	00000000 	nop
80001fb8:	8c420000 	lw	v0,0(v0)
80001fbc:	00000000 	nop
80001fc0:	afc20010 	sw	v0,16(s8)
80001fc4:	8fc20010 	lw	v0,16(s8)
80001fc8:	00000000 	nop
80001fcc:	30420001 	andi	v0,v0,0x1
80001fd0:	1040fff4 	beqz	v0,80001fa4 <serial_putc_sub+0x14>
80001fd4:	00000000 	nop
80001fd8:	24020074 	li	v0,116
80001fdc:	304200ff 	andi	v0,v0,0xff
80001fe0:	3c03bfd0 	lui	v1,0xbfd0
80001fe4:	346303f8 	ori	v1,v1,0x3f8
80001fe8:	afc30000 	sw	v1,0(s8)
80001fec:	afc20014 	sw	v0,20(s8)
80001ff0:	8fc20000 	lw	v0,0(s8)
80001ff4:	8fc30014 	lw	v1,20(s8)
80001ff8:	00000000 	nop
80001ffc:	ac430000 	sw	v1,0(v0)
80002000:	00000000 	nop
80002004:	3c02bfd0 	lui	v0,0xbfd0
80002008:	344203fc 	ori	v0,v0,0x3fc
8000200c:	afc20004 	sw	v0,4(s8)
80002010:	8fc20004 	lw	v0,4(s8)
80002014:	00000000 	nop
80002018:	8c420000 	lw	v0,0(v0)
8000201c:	00000000 	nop
80002020:	afc20018 	sw	v0,24(s8)
80002024:	8fc20018 	lw	v0,24(s8)
80002028:	00000000 	nop
8000202c:	30420001 	andi	v0,v0,0x1
80002030:	1040fff4 	beqz	v0,80002004 <serial_putc_sub+0x74>
80002034:	00000000 	nop
80002038:	8fc20028 	lw	v0,40(s8)
8000203c:	00000000 	nop
80002040:	304200ff 	andi	v0,v0,0xff
80002044:	3c03bfd0 	lui	v1,0xbfd0
80002048:	346303f8 	ori	v1,v1,0x3f8
8000204c:	afc30008 	sw	v1,8(s8)
80002050:	afc2001c 	sw	v0,28(s8)
80002054:	8fc20008 	lw	v0,8(s8)
80002058:	8fc3001c 	lw	v1,28(s8)
8000205c:	00000000 	nop
80002060:	ac430000 	sw	v1,0(v0)
80002064:	00000000 	nop
80002068:	03c0e821 	move	sp,s8
8000206c:	8fbe0024 	lw	s8,36(sp)
80002070:	27bd0028 	addiu	sp,sp,40
80002074:	03e00008 	jr	ra
80002078:	00000000 	nop

8000207c <serial_putc>:
8000207c:	27bdffe8 	addiu	sp,sp,-24
80002080:	afbf0014 	sw	ra,20(sp)
80002084:	afbe0010 	sw	s8,16(sp)
80002088:	03a0f021 	move	s8,sp
8000208c:	afc40018 	sw	a0,24(s8)
80002090:	8fc30018 	lw	v1,24(s8)
80002094:	24020008 	li	v0,8
80002098:	1462000c 	bne	v1,v0,800020cc <serial_putc+0x50>
8000209c:	00000000 	nop
800020a0:	24040008 	li	a0,8
800020a4:	0c0007e4 	jal	80001f90 <serial_putc_sub>
800020a8:	00000000 	nop
800020ac:	24040020 	li	a0,32
800020b0:	0c0007e4 	jal	80001f90 <serial_putc_sub>
800020b4:	00000000 	nop
800020b8:	24040008 	li	a0,8
800020bc:	0c0007e4 	jal	80001f90 <serial_putc_sub>
800020c0:	00000000 	nop
800020c4:	10000004 	b	800020d8 <serial_putc+0x5c>
800020c8:	00000000 	nop
800020cc:	8fc40018 	lw	a0,24(s8)
800020d0:	0c0007e4 	jal	80001f90 <serial_putc_sub>
800020d4:	00000000 	nop
800020d8:	00000000 	nop
800020dc:	03c0e821 	move	sp,s8
800020e0:	8fbf0014 	lw	ra,20(sp)
800020e4:	8fbe0010 	lw	s8,16(sp)
800020e8:	27bd0018 	addiu	sp,sp,24
800020ec:	03e00008 	jr	ra
800020f0:	00000000 	nop

800020f4 <serial_proc_data>:
800020f4:	27bdffe0 	addiu	sp,sp,-32
800020f8:	afbe001c 	sw	s8,28(sp)
800020fc:	03a0f021 	move	s8,sp
80002100:	3c02bfd0 	lui	v0,0xbfd0
80002104:	344203fc 	ori	v0,v0,0x3fc
80002108:	afc2000c 	sw	v0,12(s8)
8000210c:	8fc2000c 	lw	v0,12(s8)
80002110:	00000000 	nop
80002114:	8c420000 	lw	v0,0(v0)
80002118:	00000000 	nop
8000211c:	afc20010 	sw	v0,16(s8)
80002120:	8fc20010 	lw	v0,16(s8)
80002124:	00000000 	nop
80002128:	afc20008 	sw	v0,8(s8)
8000212c:	8fc20008 	lw	v0,8(s8)
80002130:	00000000 	nop
80002134:	30420002 	andi	v0,v0,0x2
80002138:	14400004 	bnez	v0,8000214c <serial_proc_data+0x58>
8000213c:	00000000 	nop
80002140:	2402ffff 	li	v0,-1
80002144:	10000014 	b	80002198 <serial_proc_data+0xa4>
80002148:	00000000 	nop
8000214c:	3c02bfd0 	lui	v0,0xbfd0
80002150:	344203f8 	ori	v0,v0,0x3f8
80002154:	afc20004 	sw	v0,4(s8)
80002158:	8fc20004 	lw	v0,4(s8)
8000215c:	00000000 	nop
80002160:	8c420000 	lw	v0,0(v0)
80002164:	00000000 	nop
80002168:	afc20014 	sw	v0,20(s8)
8000216c:	8fc20014 	lw	v0,20(s8)
80002170:	00000000 	nop
80002174:	304200ff 	andi	v0,v0,0xff
80002178:	afc20000 	sw	v0,0(s8)
8000217c:	8fc30000 	lw	v1,0(s8)
80002180:	2402007f 	li	v0,127
80002184:	14620003 	bne	v1,v0,80002194 <serial_proc_data+0xa0>
80002188:	00000000 	nop
8000218c:	24020008 	li	v0,8
80002190:	afc20000 	sw	v0,0(s8)
80002194:	8fc20000 	lw	v0,0(s8)
80002198:	03c0e821 	move	sp,s8
8000219c:	8fbe001c 	lw	s8,28(sp)
800021a0:	27bd0020 	addiu	sp,sp,32
800021a4:	03e00008 	jr	ra
800021a8:	00000000 	nop

800021ac <cons_init>:
800021ac:	27bdffe8 	addiu	sp,sp,-24
800021b0:	afbf0014 	sw	ra,20(sp)
800021b4:	afbe0010 	sw	s8,16(sp)
800021b8:	03a0f021 	move	s8,sp
800021bc:	0c0007ce 	jal	80001f38 <serial_init>
800021c0:	00000000 	nop
800021c4:	3c028000 	lui	v0,0x8000
800021c8:	2444393c 	addiu	a0,v0,14652
800021cc:	0c000489 	jal	80001224 <kprintf>
800021d0:	00000000 	nop
800021d4:	00000000 	nop
800021d8:	03c0e821 	move	sp,s8
800021dc:	8fbf0014 	lw	ra,20(sp)
800021e0:	8fbe0010 	lw	s8,16(sp)
800021e4:	27bd0018 	addiu	sp,sp,24
800021e8:	03e00008 	jr	ra
800021ec:	00000000 	nop

800021f0 <cons_putc>:
800021f0:	27bdffe8 	addiu	sp,sp,-24
800021f4:	afbf0014 	sw	ra,20(sp)
800021f8:	afbe0010 	sw	s8,16(sp)
800021fc:	03a0f021 	move	s8,sp
80002200:	afc40018 	sw	a0,24(s8)
80002204:	8fc40018 	lw	a0,24(s8)
80002208:	0c00081f 	jal	8000207c <serial_putc>
8000220c:	00000000 	nop
80002210:	00000000 	nop
80002214:	03c0e821 	move	sp,s8
80002218:	8fbf0014 	lw	ra,20(sp)
8000221c:	8fbe0010 	lw	s8,16(sp)
80002220:	27bd0018 	addiu	sp,sp,24
80002224:	03e00008 	jr	ra
80002228:	00000000 	nop

8000222c <cons_getc>:
8000222c:	27bdffe8 	addiu	sp,sp,-24
80002230:	afbf0014 	sw	ra,20(sp)
80002234:	afbe0010 	sw	s8,16(sp)
80002238:	03a0f021 	move	s8,sp
8000223c:	0c00083d 	jal	800020f4 <serial_proc_data>
80002240:	00000000 	nop
80002244:	03c0e821 	move	sp,s8
80002248:	8fbf0014 	lw	ra,20(sp)
8000224c:	8fbe0010 	lw	s8,16(sp)
80002250:	27bd0018 	addiu	sp,sp,24
80002254:	03e00008 	jr	ra
80002258:	00000000 	nop

8000225c <serial_int_handler>:
8000225c:	27bdffd0 	addiu	sp,sp,-48
80002260:	afbf002c 	sw	ra,44(sp)
80002264:	afbe0028 	sw	s8,40(sp)
80002268:	03a0f021 	move	s8,sp
8000226c:	afc40030 	sw	a0,48(s8)
80002270:	3c02bfd0 	lui	v0,0xbfd0
80002274:	344203fc 	ori	v0,v0,0x3fc
80002278:	afc2001c 	sw	v0,28(s8)
8000227c:	8fc2001c 	lw	v0,28(s8)
80002280:	00000000 	nop
80002284:	8c420000 	lw	v0,0(v0)
80002288:	00000000 	nop
8000228c:	afc20020 	sw	v0,32(s8)
80002290:	8fc20020 	lw	v0,32(s8)
80002294:	00000000 	nop
80002298:	afc20018 	sw	v0,24(s8)
8000229c:	8fc20018 	lw	v0,24(s8)
800022a0:	00000000 	nop
800022a4:	30420002 	andi	v0,v0,0x2
800022a8:	10400018 	beqz	v0,8000230c <serial_int_handler+0xb0>
800022ac:	00000000 	nop
800022b0:	3c02bfd0 	lui	v0,0xbfd0
800022b4:	344203f8 	ori	v0,v0,0x3f8
800022b8:	afc20014 	sw	v0,20(s8)
800022bc:	8fc20014 	lw	v0,20(s8)
800022c0:	00000000 	nop
800022c4:	8c420000 	lw	v0,0(v0)
800022c8:	00000000 	nop
800022cc:	afc20024 	sw	v0,36(s8)
800022d0:	8fc20024 	lw	v0,36(s8)
800022d4:	00000000 	nop
800022d8:	304200ff 	andi	v0,v0,0xff
800022dc:	afc20010 	sw	v0,16(s8)
800022e0:	8fc30010 	lw	v1,16(s8)
800022e4:	2402007f 	li	v0,127
800022e8:	14620003 	bne	v1,v0,800022f8 <serial_int_handler+0x9c>
800022ec:	00000000 	nop
800022f0:	24020008 	li	v0,8
800022f4:	afc20010 	sw	v0,16(s8)
800022f8:	8fc40010 	lw	a0,16(s8)
800022fc:	0c00087c 	jal	800021f0 <cons_putc>
80002300:	00000000 	nop
80002304:	10000002 	b	80002310 <serial_int_handler+0xb4>
80002308:	00000000 	nop
8000230c:	00000000 	nop
80002310:	03c0e821 	move	sp,s8
80002314:	8fbf002c 	lw	ra,44(sp)
80002318:	8fbe0028 	lw	s8,40(sp)
8000231c:	27bd0030 	addiu	sp,sp,48
80002320:	03e00008 	jr	ra
80002324:	00000000 	nop

80002328 <intr_enable>:
80002328:	27bdfff0 	addiu	sp,sp,-16
8000232c:	afbe000c 	sw	s8,12(sp)
80002330:	03a0f021 	move	s8,sp
80002334:	40026000 	mfc0	v0,c0_status
80002338:	00000000 	nop
8000233c:	afc20000 	sw	v0,0(s8)
80002340:	8fc20000 	lw	v0,0(s8)
80002344:	00000000 	nop
80002348:	34420001 	ori	v0,v0,0x1
8000234c:	afc20000 	sw	v0,0(s8)
80002350:	8fc20000 	lw	v0,0(s8)
80002354:	00000000 	nop
80002358:	40826000 	mtc0	v0,c0_status
8000235c:	00000000 	nop
80002360:	03c0e821 	move	sp,s8
80002364:	8fbe000c 	lw	s8,12(sp)
80002368:	27bd0010 	addiu	sp,sp,16
8000236c:	03e00008 	jr	ra
80002370:	00000000 	nop

80002374 <intr_disable>:
80002374:	27bdfff0 	addiu	sp,sp,-16
80002378:	afbe000c 	sw	s8,12(sp)
8000237c:	03a0f021 	move	s8,sp
80002380:	40026000 	mfc0	v0,c0_status
80002384:	00000000 	nop
80002388:	afc20000 	sw	v0,0(s8)
8000238c:	8fc30000 	lw	v1,0(s8)
80002390:	2402fffe 	li	v0,-2
80002394:	00621024 	and	v0,v1,v0
80002398:	afc20000 	sw	v0,0(s8)
8000239c:	8fc20000 	lw	v0,0(s8)
800023a0:	00000000 	nop
800023a4:	40826000 	mtc0	v0,c0_status
800023a8:	00000000 	nop
800023ac:	03c0e821 	move	sp,s8
800023b0:	8fbe000c 	lw	s8,12(sp)
800023b4:	27bd0010 	addiu	sp,sp,16
800023b8:	03e00008 	jr	ra
800023bc:	00000000 	nop

800023c0 <pic_enable>:
800023c0:	27bdffe0 	addiu	sp,sp,-32
800023c4:	afbf001c 	sw	ra,28(sp)
800023c8:	afbe0018 	sw	s8,24(sp)
800023cc:	03a0f021 	move	s8,sp
800023d0:	afc40020 	sw	a0,32(s8)
800023d4:	8fc20020 	lw	v0,32(s8)
800023d8:	00000000 	nop
800023dc:	2c420008 	sltiu	v0,v0,8
800023e0:	14400008 	bnez	v0,80002404 <pic_enable+0x44>
800023e4:	00000000 	nop
800023e8:	3c028000 	lui	v0,0x8000
800023ec:	24463954 	addiu	a2,v0,14676
800023f0:	2405000c 	li	a1,12
800023f4:	3c028000 	lui	v0,0x8000
800023f8:	24443970 	addiu	a0,v0,14704
800023fc:	0c000afd 	jal	80002bf4 <__panic>
80002400:	00000000 	nop
80002404:	40026000 	mfc0	v0,c0_status
80002408:	00000000 	nop
8000240c:	afc20010 	sw	v0,16(s8)
80002410:	8fc20010 	lw	v0,16(s8)
80002414:	00000000 	nop
80002418:	afc20014 	sw	v0,20(s8)
8000241c:	8fc20020 	lw	v0,32(s8)
80002420:	00000000 	nop
80002424:	24420008 	addiu	v0,v0,8
80002428:	24030001 	li	v1,1
8000242c:	00431004 	sllv	v0,v1,v0
80002430:	00401821 	move	v1,v0
80002434:	8fc20014 	lw	v0,20(s8)
80002438:	00000000 	nop
8000243c:	00431025 	or	v0,v0,v1
80002440:	afc20014 	sw	v0,20(s8)
80002444:	8fc20014 	lw	v0,20(s8)
80002448:	00000000 	nop
8000244c:	40826000 	mtc0	v0,c0_status
80002450:	00000000 	nop
80002454:	03c0e821 	move	sp,s8
80002458:	8fbf001c 	lw	ra,28(sp)
8000245c:	8fbe0018 	lw	s8,24(sp)
80002460:	27bd0020 	addiu	sp,sp,32
80002464:	03e00008 	jr	ra
80002468:	00000000 	nop

8000246c <pic_disable>:
8000246c:	27bdffe0 	addiu	sp,sp,-32
80002470:	afbf001c 	sw	ra,28(sp)
80002474:	afbe0018 	sw	s8,24(sp)
80002478:	03a0f021 	move	s8,sp
8000247c:	afc40020 	sw	a0,32(s8)
80002480:	8fc20020 	lw	v0,32(s8)
80002484:	00000000 	nop
80002488:	2c420008 	sltiu	v0,v0,8
8000248c:	14400008 	bnez	v0,800024b0 <pic_disable+0x44>
80002490:	00000000 	nop
80002494:	3c028000 	lui	v0,0x8000
80002498:	24463954 	addiu	a2,v0,14676
8000249c:	24050013 	li	a1,19
800024a0:	3c028000 	lui	v0,0x8000
800024a4:	24443970 	addiu	a0,v0,14704
800024a8:	0c000afd 	jal	80002bf4 <__panic>
800024ac:	00000000 	nop
800024b0:	40026000 	mfc0	v0,c0_status
800024b4:	00000000 	nop
800024b8:	afc20010 	sw	v0,16(s8)
800024bc:	8fc20010 	lw	v0,16(s8)
800024c0:	00000000 	nop
800024c4:	afc20014 	sw	v0,20(s8)
800024c8:	8fc20020 	lw	v0,32(s8)
800024cc:	00000000 	nop
800024d0:	24420008 	addiu	v0,v0,8
800024d4:	24030001 	li	v1,1
800024d8:	00431004 	sllv	v0,v1,v0
800024dc:	00021027 	nor	v0,zero,v0
800024e0:	00401821 	move	v1,v0
800024e4:	8fc20014 	lw	v0,20(s8)
800024e8:	00000000 	nop
800024ec:	00431024 	and	v0,v0,v1
800024f0:	afc20014 	sw	v0,20(s8)
800024f4:	8fc20014 	lw	v0,20(s8)
800024f8:	00000000 	nop
800024fc:	40826000 	mtc0	v0,c0_status
80002500:	00000000 	nop
80002504:	03c0e821 	move	sp,s8
80002508:	8fbf001c 	lw	ra,28(sp)
8000250c:	8fbe0018 	lw	s8,24(sp)
80002510:	27bd0020 	addiu	sp,sp,32
80002514:	03e00008 	jr	ra
80002518:	00000000 	nop

8000251c <pic_init>:
8000251c:	27bdfff0 	addiu	sp,sp,-16
80002520:	afbe000c 	sw	s8,12(sp)
80002524:	03a0f021 	move	s8,sp
80002528:	40026000 	mfc0	v0,c0_status
8000252c:	00000000 	nop
80002530:	afc20000 	sw	v0,0(s8)
80002534:	8fc20000 	lw	v0,0(s8)
80002538:	00000000 	nop
8000253c:	afc20004 	sw	v0,4(s8)
80002540:	8fc30004 	lw	v1,4(s8)
80002544:	3c02ffff 	lui	v0,0xffff
80002548:	344200ff 	ori	v0,v0,0xff
8000254c:	00621024 	and	v0,v1,v0
80002550:	afc20004 	sw	v0,4(s8)
80002554:	8fc20004 	lw	v0,4(s8)
80002558:	00000000 	nop
8000255c:	40826000 	mtc0	v0,c0_status
80002560:	3c028000 	lui	v0,0x8000
80002564:	24030001 	li	v1,1
80002568:	ac436864 	sw	v1,26724(v0)
8000256c:	00000000 	nop
80002570:	03c0e821 	move	sp,s8
80002574:	8fbe000c 	lw	s8,12(sp)
80002578:	27bd0010 	addiu	sp,sp,16
8000257c:	03e00008 	jr	ra
80002580:	00000000 	nop

80002584 <print_kerninfo>:
80002584:	27bdffe8 	addiu	sp,sp,-24
80002588:	afbf0014 	sw	ra,20(sp)
8000258c:	afbe0010 	sw	s8,16(sp)
80002590:	03a0f021 	move	s8,sp
80002594:	3c028000 	lui	v0,0x8000
80002598:	24443988 	addiu	a0,v0,14728
8000259c:	0c000489 	jal	80001224 <kprintf>
800025a0:	00000000 	nop
800025a4:	3c028000 	lui	v0,0x8000
800025a8:	244439a4 	addiu	a0,v0,14756
800025ac:	0c000489 	jal	80001224 <kprintf>
800025b0:	00000000 	nop
800025b4:	3c028000 	lui	v0,0x8000
800025b8:	244200a0 	addiu	v0,v0,160
800025bc:	00402021 	move	a0,v0
800025c0:	0c0004a1 	jal	80001284 <printhex>
800025c4:	00000000 	nop
800025c8:	3c028000 	lui	v0,0x8000
800025cc:	244439b0 	addiu	a0,v0,14768
800025d0:	0c000489 	jal	80001224 <kprintf>
800025d4:	00000000 	nop
800025d8:	3c028000 	lui	v0,0x8000
800025dc:	244439bc 	addiu	a0,v0,14780
800025e0:	0c000489 	jal	80001224 <kprintf>
800025e4:	00000000 	nop
800025e8:	3c028000 	lui	v0,0x8000
800025ec:	24424420 	addiu	v0,v0,17440
800025f0:	00402021 	move	a0,v0
800025f4:	0c0004a1 	jal	80001284 <printhex>
800025f8:	00000000 	nop
800025fc:	3c028000 	lui	v0,0x8000
80002600:	244439b0 	addiu	a0,v0,14768
80002604:	0c000489 	jal	80001224 <kprintf>
80002608:	00000000 	nop
8000260c:	3c028000 	lui	v0,0x8000
80002610:	244439c8 	addiu	a0,v0,14792
80002614:	0c000489 	jal	80001224 <kprintf>
80002618:	00000000 	nop
8000261c:	3c028000 	lui	v0,0x8000
80002620:	24426460 	addiu	v0,v0,25696
80002624:	00402021 	move	a0,v0
80002628:	0c0004a1 	jal	80001284 <printhex>
8000262c:	00000000 	nop
80002630:	3c028000 	lui	v0,0x8000
80002634:	244439b0 	addiu	a0,v0,14768
80002638:	0c000489 	jal	80001224 <kprintf>
8000263c:	00000000 	nop
80002640:	3c028000 	lui	v0,0x8000
80002644:	244439d4 	addiu	a0,v0,14804
80002648:	0c000489 	jal	80001224 <kprintf>
8000264c:	00000000 	nop
80002650:	3c028000 	lui	v0,0x8000
80002654:	24426880 	addiu	v0,v0,26752
80002658:	00402021 	move	a0,v0
8000265c:	0c0004a1 	jal	80001284 <printhex>
80002660:	00000000 	nop
80002664:	3c028000 	lui	v0,0x8000
80002668:	244439b0 	addiu	a0,v0,14768
8000266c:	0c000489 	jal	80001224 <kprintf>
80002670:	00000000 	nop
80002674:	3c028000 	lui	v0,0x8000
80002678:	244439e0 	addiu	a0,v0,14816
8000267c:	0c000489 	jal	80001224 <kprintf>
80002680:	00000000 	nop
80002684:	3c028000 	lui	v0,0x8000
80002688:	24426880 	addiu	v0,v0,26752
8000268c:	244303ff 	addiu	v1,v0,1023
80002690:	3c028000 	lui	v0,0x8000
80002694:	24424420 	addiu	v0,v0,17440
80002698:	00621023 	subu	v0,v1,v0
8000269c:	00021283 	sra	v0,v0,0xa
800026a0:	00402021 	move	a0,v0
800026a4:	0c0004ce 	jal	80001338 <printbase10>
800026a8:	00000000 	nop
800026ac:	3c028000 	lui	v0,0x8000
800026b0:	24443a08 	addiu	a0,v0,14856
800026b4:	0c000489 	jal	80001224 <kprintf>
800026b8:	00000000 	nop
800026bc:	00000000 	nop
800026c0:	03c0e821 	move	sp,s8
800026c4:	8fbf0014 	lw	ra,20(sp)
800026c8:	8fbe0010 	lw	s8,16(sp)
800026cc:	27bd0018 	addiu	sp,sp,24
800026d0:	03e00008 	jr	ra
800026d4:	00000000 	nop

800026d8 <print_debuginfo>:
800026d8:	27bdffe8 	addiu	sp,sp,-24
800026dc:	afbf0014 	sw	ra,20(sp)
800026e0:	afbe0010 	sw	s8,16(sp)
800026e4:	03a0f021 	move	s8,sp
800026e8:	afc40018 	sw	a0,24(s8)
800026ec:	3c028000 	lui	v0,0x8000
800026f0:	24463a0c 	addiu	a2,v0,14860
800026f4:	2405002b 	li	a1,43
800026f8:	3c028000 	lui	v0,0x8000
800026fc:	24443a14 	addiu	a0,v0,14868
80002700:	0c000afd 	jal	80002bf4 <__panic>
80002704:	00000000 	nop

80002708 <print_stackframe>:
80002708:	27bdffe8 	addiu	sp,sp,-24
8000270c:	afbf0014 	sw	ra,20(sp)
80002710:	afbe0010 	sw	s8,16(sp)
80002714:	03a0f021 	move	s8,sp
80002718:	3c028000 	lui	v0,0x8000
8000271c:	24463a0c 	addiu	a2,v0,14860
80002720:	24050053 	li	a1,83
80002724:	3c028000 	lui	v0,0x8000
80002728:	24443a14 	addiu	a0,v0,14868
8000272c:	0c000afd 	jal	80002bf4 <__panic>
80002730:	00000000 	nop

80002734 <parse>:
80002734:	27bdffe0 	addiu	sp,sp,-32
80002738:	afbf001c 	sw	ra,28(sp)
8000273c:	afbe0018 	sw	s8,24(sp)
80002740:	03a0f021 	move	s8,sp
80002744:	afc40020 	sw	a0,32(s8)
80002748:	afc50024 	sw	a1,36(s8)
8000274c:	afc00010 	sw	zero,16(s8)
80002750:	10000006 	b	8000276c <parse+0x38>
80002754:	00000000 	nop
80002758:	8fc20020 	lw	v0,32(s8)
8000275c:	00000000 	nop
80002760:	24430001 	addiu	v1,v0,1
80002764:	afc30020 	sw	v1,32(s8)
80002768:	a0400000 	sb	zero,0(v0)
8000276c:	8fc20020 	lw	v0,32(s8)
80002770:	00000000 	nop
80002774:	90420000 	lbu	v0,0(v0)
80002778:	00000000 	nop
8000277c:	1040000c 	beqz	v0,800027b0 <parse+0x7c>
80002780:	00000000 	nop
80002784:	8fc20020 	lw	v0,32(s8)
80002788:	00000000 	nop
8000278c:	90420000 	lbu	v0,0(v0)
80002790:	00000000 	nop
80002794:	00402821 	move	a1,v0
80002798:	3c028000 	lui	v0,0x8000
8000279c:	24443a84 	addiu	a0,v0,14980
800027a0:	0c000661 	jal	80001984 <strchr>
800027a4:	00000000 	nop
800027a8:	1440ffeb 	bnez	v0,80002758 <parse+0x24>
800027ac:	00000000 	nop
800027b0:	8fc20020 	lw	v0,32(s8)
800027b4:	00000000 	nop
800027b8:	90420000 	lbu	v0,0(v0)
800027bc:	00000000 	nop
800027c0:	1040002d 	beqz	v0,80002878 <parse+0x144>
800027c4:	00000000 	nop
800027c8:	8fc30010 	lw	v1,16(s8)
800027cc:	2402000f 	li	v0,15
800027d0:	14620005 	bne	v1,v0,800027e8 <parse+0xb4>
800027d4:	00000000 	nop
800027d8:	3c028000 	lui	v0,0x8000
800027dc:	24443a8c 	addiu	a0,v0,14988
800027e0:	0c000489 	jal	80001224 <kprintf>
800027e4:	00000000 	nop
800027e8:	8fc20010 	lw	v0,16(s8)
800027ec:	00000000 	nop
800027f0:	24430001 	addiu	v1,v0,1
800027f4:	afc30010 	sw	v1,16(s8)
800027f8:	00021080 	sll	v0,v0,0x2
800027fc:	8fc30024 	lw	v1,36(s8)
80002800:	00000000 	nop
80002804:	00621021 	addu	v0,v1,v0
80002808:	8fc30020 	lw	v1,32(s8)
8000280c:	00000000 	nop
80002810:	ac430000 	sw	v1,0(v0)
80002814:	10000005 	b	8000282c <parse+0xf8>
80002818:	00000000 	nop
8000281c:	8fc20020 	lw	v0,32(s8)
80002820:	00000000 	nop
80002824:	24420001 	addiu	v0,v0,1
80002828:	afc20020 	sw	v0,32(s8)
8000282c:	8fc20020 	lw	v0,32(s8)
80002830:	00000000 	nop
80002834:	90420000 	lbu	v0,0(v0)
80002838:	00000000 	nop
8000283c:	1040ffc4 	beqz	v0,80002750 <parse+0x1c>
80002840:	00000000 	nop
80002844:	8fc20020 	lw	v0,32(s8)
80002848:	00000000 	nop
8000284c:	90420000 	lbu	v0,0(v0)
80002850:	00000000 	nop
80002854:	00402821 	move	a1,v0
80002858:	3c028000 	lui	v0,0x8000
8000285c:	24443a84 	addiu	a0,v0,14980
80002860:	0c000661 	jal	80001984 <strchr>
80002864:	00000000 	nop
80002868:	1040ffec 	beqz	v0,8000281c <parse+0xe8>
8000286c:	00000000 	nop
80002870:	1000ffb7 	b	80002750 <parse+0x1c>
80002874:	00000000 	nop
80002878:	00000000 	nop
8000287c:	8fc20010 	lw	v0,16(s8)
80002880:	03c0e821 	move	sp,s8
80002884:	8fbf001c 	lw	ra,28(sp)
80002888:	8fbe0018 	lw	s8,24(sp)
8000288c:	27bd0020 	addiu	sp,sp,32
80002890:	03e00008 	jr	ra
80002894:	00000000 	nop

80002898 <runcmd>:
80002898:	27bdffa0 	addiu	sp,sp,-96
8000289c:	afbf005c 	sw	ra,92(sp)
800028a0:	afbe0058 	sw	s8,88(sp)
800028a4:	03a0f021 	move	s8,sp
800028a8:	afc40060 	sw	a0,96(s8)
800028ac:	afc50064 	sw	a1,100(s8)
800028b0:	27c20018 	addiu	v0,s8,24
800028b4:	00402821 	move	a1,v0
800028b8:	8fc40060 	lw	a0,96(s8)
800028bc:	0c0009cd 	jal	80002734 <parse>
800028c0:	00000000 	nop
800028c4:	afc20014 	sw	v0,20(s8)
800028c8:	8fc20014 	lw	v0,20(s8)
800028cc:	00000000 	nop
800028d0:	14400004 	bnez	v0,800028e4 <runcmd+0x4c>
800028d4:	00000000 	nop
800028d8:	00001021 	move	v0,zero
800028dc:	10000044 	b	800029f0 <runcmd+0x158>
800028e0:	00000000 	nop
800028e4:	afc00010 	sw	zero,16(s8)
800028e8:	1000002e 	b	800029a4 <runcmd+0x10c>
800028ec:	00000000 	nop
800028f0:	3c048000 	lui	a0,0x8000
800028f4:	8fc20010 	lw	v0,16(s8)
800028f8:	00000000 	nop
800028fc:	00401821 	move	v1,v0
80002900:	00031080 	sll	v0,v1,0x2
80002904:	00401821 	move	v1,v0
80002908:	00031080 	sll	v0,v1,0x2
8000290c:	00431023 	subu	v0,v0,v1
80002910:	24834424 	addiu	v1,a0,17444
80002914:	00431021 	addu	v0,v0,v1
80002918:	8c420000 	lw	v0,0(v0)
8000291c:	8fc30018 	lw	v1,24(s8)
80002920:	00000000 	nop
80002924:	00602821 	move	a1,v1
80002928:	00402021 	move	a0,v0
8000292c:	0c0005f7 	jal	800017dc <strcmp>
80002930:	00000000 	nop
80002934:	14400017 	bnez	v0,80002994 <runcmd+0xfc>
80002938:	00000000 	nop
8000293c:	3c048000 	lui	a0,0x8000
80002940:	8fc20010 	lw	v0,16(s8)
80002944:	00000000 	nop
80002948:	00401821 	move	v1,v0
8000294c:	00031080 	sll	v0,v1,0x2
80002950:	00401821 	move	v1,v0
80002954:	00031080 	sll	v0,v1,0x2
80002958:	00431023 	subu	v0,v0,v1
8000295c:	24834424 	addiu	v1,a0,17444
80002960:	00431021 	addu	v0,v0,v1
80002964:	8c430008 	lw	v1,8(v0)
80002968:	8fc20014 	lw	v0,20(s8)
8000296c:	00000000 	nop
80002970:	2444ffff 	addiu	a0,v0,-1
80002974:	27c20018 	addiu	v0,s8,24
80002978:	24420004 	addiu	v0,v0,4
8000297c:	8fc60064 	lw	a2,100(s8)
80002980:	00402821 	move	a1,v0
80002984:	0060f809 	jalr	v1
80002988:	00000000 	nop
8000298c:	10000018 	b	800029f0 <runcmd+0x158>
80002990:	00000000 	nop
80002994:	8fc20010 	lw	v0,16(s8)
80002998:	00000000 	nop
8000299c:	24420001 	addiu	v0,v0,1
800029a0:	afc20010 	sw	v0,16(s8)
800029a4:	8fc20010 	lw	v0,16(s8)
800029a8:	00000000 	nop
800029ac:	2c420002 	sltiu	v0,v0,2
800029b0:	1440ffcf 	bnez	v0,800028f0 <runcmd+0x58>
800029b4:	00000000 	nop
800029b8:	3c028000 	lui	v0,0x8000
800029bc:	24443aa4 	addiu	a0,v0,15012
800029c0:	0c000489 	jal	80001224 <kprintf>
800029c4:	00000000 	nop
800029c8:	8fc20018 	lw	v0,24(s8)
800029cc:	00000000 	nop
800029d0:	00402021 	move	a0,v0
800029d4:	0c000489 	jal	80001224 <kprintf>
800029d8:	00000000 	nop
800029dc:	3c028000 	lui	v0,0x8000
800029e0:	24443ab8 	addiu	a0,v0,15032
800029e4:	0c000489 	jal	80001224 <kprintf>
800029e8:	00000000 	nop
800029ec:	00001021 	move	v0,zero
800029f0:	03c0e821 	move	sp,s8
800029f4:	8fbf005c 	lw	ra,92(sp)
800029f8:	8fbe0058 	lw	s8,88(sp)
800029fc:	27bd0060 	addiu	sp,sp,96
80002a00:	03e00008 	jr	ra
80002a04:	00000000 	nop

80002a08 <monitor>:
80002a08:	27bdffe0 	addiu	sp,sp,-32
80002a0c:	afbf001c 	sw	ra,28(sp)
80002a10:	afbe0018 	sw	s8,24(sp)
80002a14:	03a0f021 	move	s8,sp
80002a18:	afc40020 	sw	a0,32(s8)
80002a1c:	3c028000 	lui	v0,0x8000
80002a20:	24443abc 	addiu	a0,v0,15036
80002a24:	0c000489 	jal	80001224 <kprintf>
80002a28:	00000000 	nop
80002a2c:	3c028000 	lui	v0,0x8000
80002a30:	24443ae4 	addiu	a0,v0,15076
80002a34:	0c000489 	jal	80001224 <kprintf>
80002a38:	00000000 	nop
80002a3c:	8fc20020 	lw	v0,32(s8)
80002a40:	00000000 	nop
80002a44:	10400004 	beqz	v0,80002a58 <monitor+0x50>
80002a48:	00000000 	nop
80002a4c:	8fc40020 	lw	a0,32(s8)
80002a50:	0c000bc6 	jal	80002f18 <print_trapframe>
80002a54:	00000000 	nop
80002a58:	3c028000 	lui	v0,0x8000
80002a5c:	24443b0c 	addiu	a0,v0,15116
80002a60:	0c0003ac 	jal	80000eb0 <readline>
80002a64:	00000000 	nop
80002a68:	afc20010 	sw	v0,16(s8)
80002a6c:	8fc20010 	lw	v0,16(s8)
80002a70:	00000000 	nop
80002a74:	1040fff8 	beqz	v0,80002a58 <monitor+0x50>
80002a78:	00000000 	nop
80002a7c:	8fc50020 	lw	a1,32(s8)
80002a80:	8fc40010 	lw	a0,16(s8)
80002a84:	0c000a26 	jal	80002898 <runcmd>
80002a88:	00000000 	nop
80002a8c:	04400003 	bltz	v0,80002a9c <monitor+0x94>
80002a90:	00000000 	nop
80002a94:	1000fff0 	b	80002a58 <monitor+0x50>
80002a98:	00000000 	nop
	...
80002aa4:	03c0e821 	move	sp,s8
80002aa8:	8fbf001c 	lw	ra,28(sp)
80002aac:	8fbe0018 	lw	s8,24(sp)
80002ab0:	27bd0020 	addiu	sp,sp,32
80002ab4:	03e00008 	jr	ra
80002ab8:	00000000 	nop

80002abc <mon_help>:
80002abc:	27bdffe0 	addiu	sp,sp,-32
80002ac0:	afbf001c 	sw	ra,28(sp)
80002ac4:	afbe0018 	sw	s8,24(sp)
80002ac8:	03a0f021 	move	s8,sp
80002acc:	afc40020 	sw	a0,32(s8)
80002ad0:	afc50024 	sw	a1,36(s8)
80002ad4:	afc60028 	sw	a2,40(s8)
80002ad8:	afc00010 	sw	zero,16(s8)
80002adc:	10000029 	b	80002b84 <mon_help+0xc8>
80002ae0:	00000000 	nop
80002ae4:	3c048000 	lui	a0,0x8000
80002ae8:	8fc20010 	lw	v0,16(s8)
80002aec:	00000000 	nop
80002af0:	00401821 	move	v1,v0
80002af4:	00031080 	sll	v0,v1,0x2
80002af8:	00401821 	move	v1,v0
80002afc:	00031080 	sll	v0,v1,0x2
80002b00:	00431023 	subu	v0,v0,v1
80002b04:	24834424 	addiu	v1,a0,17444
80002b08:	00431021 	addu	v0,v0,v1
80002b0c:	8c420000 	lw	v0,0(v0)
80002b10:	00000000 	nop
80002b14:	00402021 	move	a0,v0
80002b18:	0c000489 	jal	80001224 <kprintf>
80002b1c:	00000000 	nop
80002b20:	3c028000 	lui	v0,0x8000
80002b24:	24443b10 	addiu	a0,v0,15120
80002b28:	0c000489 	jal	80001224 <kprintf>
80002b2c:	00000000 	nop
80002b30:	3c028000 	lui	v0,0x8000
80002b34:	8fc40010 	lw	a0,16(s8)
80002b38:	24434424 	addiu	v1,v0,17444
80002b3c:	00801021 	move	v0,a0
80002b40:	00021080 	sll	v0,v0,0x2
80002b44:	00022080 	sll	a0,v0,0x2
80002b48:	00821023 	subu	v0,a0,v0
80002b4c:	00621021 	addu	v0,v1,v0
80002b50:	8c420004 	lw	v0,4(v0)
80002b54:	00000000 	nop
80002b58:	00402021 	move	a0,v0
80002b5c:	0c000489 	jal	80001224 <kprintf>
80002b60:	00000000 	nop
80002b64:	3c028000 	lui	v0,0x8000
80002b68:	24443b14 	addiu	a0,v0,15124
80002b6c:	0c000489 	jal	80001224 <kprintf>
80002b70:	00000000 	nop
80002b74:	8fc20010 	lw	v0,16(s8)
80002b78:	00000000 	nop
80002b7c:	24420001 	addiu	v0,v0,1
80002b80:	afc20010 	sw	v0,16(s8)
80002b84:	8fc20010 	lw	v0,16(s8)
80002b88:	00000000 	nop
80002b8c:	2c420002 	sltiu	v0,v0,2
80002b90:	1440ffd4 	bnez	v0,80002ae4 <mon_help+0x28>
80002b94:	00000000 	nop
80002b98:	00001021 	move	v0,zero
80002b9c:	03c0e821 	move	sp,s8
80002ba0:	8fbf001c 	lw	ra,28(sp)
80002ba4:	8fbe0018 	lw	s8,24(sp)
80002ba8:	27bd0020 	addiu	sp,sp,32
80002bac:	03e00008 	jr	ra
80002bb0:	00000000 	nop

80002bb4 <mon_kerninfo>:
80002bb4:	27bdffe8 	addiu	sp,sp,-24
80002bb8:	afbf0014 	sw	ra,20(sp)
80002bbc:	afbe0010 	sw	s8,16(sp)
80002bc0:	03a0f021 	move	s8,sp
80002bc4:	afc40018 	sw	a0,24(s8)
80002bc8:	afc5001c 	sw	a1,28(s8)
80002bcc:	afc60020 	sw	a2,32(s8)
80002bd0:	0c000961 	jal	80002584 <print_kerninfo>
80002bd4:	00000000 	nop
80002bd8:	00001021 	move	v0,zero
80002bdc:	03c0e821 	move	sp,s8
80002be0:	8fbf0014 	lw	ra,20(sp)
80002be4:	8fbe0010 	lw	s8,16(sp)
80002be8:	27bd0018 	addiu	sp,sp,24
80002bec:	03e00008 	jr	ra
80002bf0:	00000000 	nop

80002bf4 <__panic>:
80002bf4:	27bdffe0 	addiu	sp,sp,-32
80002bf8:	afbf001c 	sw	ra,28(sp)
80002bfc:	afbe0018 	sw	s8,24(sp)
80002c00:	03a0f021 	move	s8,sp
80002c04:	afc40020 	sw	a0,32(s8)
80002c08:	afc50024 	sw	a1,36(s8)
80002c0c:	afc60028 	sw	a2,40(s8)
80002c10:	afc7002c 	sw	a3,44(s8)
80002c14:	3c028000 	lui	v0,0x8000
80002c18:	8c426868 	lw	v0,26728(v0)
80002c1c:	00000000 	nop
80002c20:	14400018 	bnez	v0,80002c84 <__panic+0x90>
80002c24:	00000000 	nop
80002c28:	3c028000 	lui	v0,0x8000
80002c2c:	24030001 	li	v1,1
80002c30:	ac436868 	sw	v1,26728(v0)
80002c34:	27c2002c 	addiu	v0,s8,44
80002c38:	afc20010 	sw	v0,16(s8)
80002c3c:	8fc60024 	lw	a2,36(s8)
80002c40:	8fc50020 	lw	a1,32(s8)
80002c44:	3c028000 	lui	v0,0x8000
80002c48:	24443b18 	addiu	a0,v0,15128
80002c4c:	0c000489 	jal	80001224 <kprintf>
80002c50:	00000000 	nop
80002c54:	8fc20010 	lw	v0,16(s8)
80002c58:	00000000 	nop
80002c5c:	00402821 	move	a1,v0
80002c60:	8fc40028 	lw	a0,40(s8)
80002c64:	0c00046f 	jal	800011bc <vkprintf>
80002c68:	00000000 	nop
80002c6c:	3c028000 	lui	v0,0x8000
80002c70:	24443b34 	addiu	a0,v0,15156
80002c74:	0c000489 	jal	80001224 <kprintf>
80002c78:	00000000 	nop
80002c7c:	10000002 	b	80002c88 <__panic+0x94>
80002c80:	00000000 	nop
80002c84:	00000000 	nop
80002c88:	0c0008dd 	jal	80002374 <intr_disable>
80002c8c:	00000000 	nop
80002c90:	00002021 	move	a0,zero
80002c94:	0c000a82 	jal	80002a08 <monitor>
80002c98:	00000000 	nop
80002c9c:	1000fffc 	b	80002c90 <__panic+0x9c>
80002ca0:	00000000 	nop

80002ca4 <__warn>:
80002ca4:	27bdffe0 	addiu	sp,sp,-32
80002ca8:	afbf001c 	sw	ra,28(sp)
80002cac:	afbe0018 	sw	s8,24(sp)
80002cb0:	03a0f021 	move	s8,sp
80002cb4:	afc40020 	sw	a0,32(s8)
80002cb8:	afc50024 	sw	a1,36(s8)
80002cbc:	afc60028 	sw	a2,40(s8)
80002cc0:	afc7002c 	sw	a3,44(s8)
80002cc4:	27c2002c 	addiu	v0,s8,44
80002cc8:	afc20010 	sw	v0,16(s8)
80002ccc:	8fc60024 	lw	a2,36(s8)
80002cd0:	8fc50020 	lw	a1,32(s8)
80002cd4:	3c028000 	lui	v0,0x8000
80002cd8:	24443b38 	addiu	a0,v0,15160
80002cdc:	0c000489 	jal	80001224 <kprintf>
80002ce0:	00000000 	nop
80002ce4:	8fc20010 	lw	v0,16(s8)
80002ce8:	00000000 	nop
80002cec:	00402821 	move	a1,v0
80002cf0:	8fc40028 	lw	a0,40(s8)
80002cf4:	0c00046f 	jal	800011bc <vkprintf>
80002cf8:	00000000 	nop
80002cfc:	3c028000 	lui	v0,0x8000
80002d00:	24443b34 	addiu	a0,v0,15156
80002d04:	0c000489 	jal	80001224 <kprintf>
80002d08:	00000000 	nop
80002d0c:	00000000 	nop
80002d10:	03c0e821 	move	sp,s8
80002d14:	8fbf001c 	lw	ra,28(sp)
80002d18:	8fbe0018 	lw	s8,24(sp)
80002d1c:	27bd0020 	addiu	sp,sp,32
80002d20:	03e00008 	jr	ra
80002d24:	00000000 	nop

80002d28 <is_kernel_panic>:
80002d28:	27bdfff8 	addiu	sp,sp,-8
80002d2c:	afbe0004 	sw	s8,4(sp)
80002d30:	03a0f021 	move	s8,sp
80002d34:	3c028000 	lui	v0,0x8000
80002d38:	8c426868 	lw	v0,26728(v0)
80002d3c:	03c0e821 	move	sp,s8
80002d40:	8fbe0004 	lw	s8,4(sp)
80002d44:	27bd0008 	addiu	sp,sp,8
80002d48:	03e00008 	jr	ra
80002d4c:	00000000 	nop

80002d50 <print_ticks>:
80002d50:	27bdffe8 	addiu	sp,sp,-24
80002d54:	afbf0014 	sw	ra,20(sp)
80002d58:	afbe0010 	sw	s8,16(sp)
80002d5c:	03a0f021 	move	s8,sp
80002d60:	3c028000 	lui	v0,0x8000
80002d64:	24443b58 	addiu	a0,v0,15192
80002d68:	0c000489 	jal	80001224 <kprintf>
80002d6c:	00000000 	nop
80002d70:	24040064 	li	a0,100
80002d74:	0c0004a1 	jal	80001284 <printhex>
80002d78:	00000000 	nop
80002d7c:	3c028000 	lui	v0,0x8000
80002d80:	24443b64 	addiu	a0,v0,15204
80002d84:	0c000489 	jal	80001224 <kprintf>
80002d88:	00000000 	nop
80002d8c:	00000000 	nop
80002d90:	03c0e821 	move	sp,s8
80002d94:	8fbf0014 	lw	ra,20(sp)
80002d98:	8fbe0010 	lw	s8,16(sp)
80002d9c:	27bd0018 	addiu	sp,sp,24
80002da0:	03e00008 	jr	ra
80002da4:	00000000 	nop

80002da8 <trapname>:
80002da8:	27bdfff8 	addiu	sp,sp,-8
80002dac:	afbe0004 	sw	s8,4(sp)
80002db0:	03a0f021 	move	s8,sp
80002db4:	afc40008 	sw	a0,8(s8)
80002db8:	8fc20008 	lw	v0,8(s8)
80002dbc:	00000000 	nop
80002dc0:	2842000d 	slti	v0,v0,13
80002dc4:	1040000a 	beqz	v0,80002df0 <trapname+0x48>
80002dc8:	00000000 	nop
80002dcc:	3c028000 	lui	v0,0x8000
80002dd0:	8fc30008 	lw	v1,8(s8)
80002dd4:	00000000 	nop
80002dd8:	00031880 	sll	v1,v1,0x2
80002ddc:	24423d60 	addiu	v0,v0,15712
80002de0:	00621021 	addu	v0,v1,v0
80002de4:	8c420000 	lw	v0,0(v0)
80002de8:	10000003 	b	80002df8 <trapname+0x50>
80002dec:	00000000 	nop
80002df0:	3c028000 	lui	v0,0x8000
80002df4:	24423b68 	addiu	v0,v0,15208
80002df8:	03c0e821 	move	sp,s8
80002dfc:	8fbe0004 	lw	s8,4(sp)
80002e00:	27bd0008 	addiu	sp,sp,8
80002e04:	03e00008 	jr	ra
80002e08:	00000000 	nop

80002e0c <trap_in_kernel>:
80002e0c:	27bdfff8 	addiu	sp,sp,-8
80002e10:	afbe0004 	sw	s8,4(sp)
80002e14:	03a0f021 	move	s8,sp
80002e18:	afc40008 	sw	a0,8(s8)
80002e1c:	8fc20008 	lw	v0,8(s8)
80002e20:	00000000 	nop
80002e24:	8c420004 	lw	v0,4(v0)
80002e28:	00000000 	nop
80002e2c:	30420010 	andi	v0,v0,0x10
80002e30:	2c420001 	sltiu	v0,v0,1
80002e34:	304200ff 	andi	v0,v0,0xff
80002e38:	03c0e821 	move	sp,s8
80002e3c:	8fbe0004 	lw	s8,4(sp)
80002e40:	27bd0008 	addiu	sp,sp,8
80002e44:	03e00008 	jr	ra
80002e48:	00000000 	nop

80002e4c <print_regs>:
80002e4c:	27bdffe0 	addiu	sp,sp,-32
80002e50:	afbf001c 	sw	ra,28(sp)
80002e54:	afbe0018 	sw	s8,24(sp)
80002e58:	03a0f021 	move	s8,sp
80002e5c:	afc40020 	sw	a0,32(s8)
80002e60:	afc00010 	sw	zero,16(s8)
80002e64:	10000020 	b	80002ee8 <print_regs+0x9c>
80002e68:	00000000 	nop
80002e6c:	3c028000 	lui	v0,0x8000
80002e70:	24443b70 	addiu	a0,v0,15216
80002e74:	0c000489 	jal	80001224 <kprintf>
80002e78:	00000000 	nop
80002e7c:	8fc20010 	lw	v0,16(s8)
80002e80:	00000000 	nop
80002e84:	24420001 	addiu	v0,v0,1
80002e88:	00402021 	move	a0,v0
80002e8c:	0c0004ce 	jal	80001338 <printbase10>
80002e90:	00000000 	nop
80002e94:	3c028000 	lui	v0,0x8000
80002e98:	24443b74 	addiu	a0,v0,15220
80002e9c:	0c000489 	jal	80001224 <kprintf>
80002ea0:	00000000 	nop
80002ea4:	8fc30020 	lw	v1,32(s8)
80002ea8:	8fc20010 	lw	v0,16(s8)
80002eac:	00000000 	nop
80002eb0:	00021080 	sll	v0,v0,0x2
80002eb4:	00621021 	addu	v0,v1,v0
80002eb8:	8c420000 	lw	v0,0(v0)
80002ebc:	00000000 	nop
80002ec0:	00402021 	move	a0,v0
80002ec4:	0c0004a1 	jal	80001284 <printhex>
80002ec8:	00000000 	nop
80002ecc:	2404000a 	li	a0,10
80002ed0:	0c000529 	jal	800014a4 <kputchar>
80002ed4:	00000000 	nop
80002ed8:	8fc20010 	lw	v0,16(s8)
80002edc:	00000000 	nop
80002ee0:	24420001 	addiu	v0,v0,1
80002ee4:	afc20010 	sw	v0,16(s8)
80002ee8:	8fc20010 	lw	v0,16(s8)
80002eec:	00000000 	nop
80002ef0:	2842001e 	slti	v0,v0,30
80002ef4:	1440ffdd 	bnez	v0,80002e6c <print_regs+0x20>
80002ef8:	00000000 	nop
80002efc:	00000000 	nop
80002f00:	03c0e821 	move	sp,s8
80002f04:	8fbf001c 	lw	ra,28(sp)
80002f08:	8fbe0018 	lw	s8,24(sp)
80002f0c:	27bd0020 	addiu	sp,sp,32
80002f10:	03e00008 	jr	ra
80002f14:	00000000 	nop

80002f18 <print_trapframe>:
80002f18:	27bdffe8 	addiu	sp,sp,-24
80002f1c:	afbf0014 	sw	ra,20(sp)
80002f20:	afbe0010 	sw	s8,16(sp)
80002f24:	03a0f021 	move	s8,sp
80002f28:	afc40018 	sw	a0,24(s8)
80002f2c:	3c028000 	lui	v0,0x8000
80002f30:	24443b78 	addiu	a0,v0,15224
80002f34:	0c000489 	jal	80001224 <kprintf>
80002f38:	00000000 	nop
80002f3c:	8fc20018 	lw	v0,24(s8)
80002f40:	00000000 	nop
80002f44:	00402021 	move	a0,v0
80002f48:	0c0004a1 	jal	80001284 <printhex>
80002f4c:	00000000 	nop
80002f50:	3c028000 	lui	v0,0x8000
80002f54:	24443b64 	addiu	a0,v0,15204
80002f58:	0c000489 	jal	80001224 <kprintf>
80002f5c:	00000000 	nop
80002f60:	8fc20018 	lw	v0,24(s8)
80002f64:	00000000 	nop
80002f68:	24420018 	addiu	v0,v0,24
80002f6c:	00402021 	move	a0,v0
80002f70:	0c000b93 	jal	80002e4c <print_regs>
80002f74:	00000000 	nop
80002f78:	3c028000 	lui	v0,0x8000
80002f7c:	24443b88 	addiu	a0,v0,15240
80002f80:	0c000489 	jal	80001224 <kprintf>
80002f84:	00000000 	nop
80002f88:	8fc20018 	lw	v0,24(s8)
80002f8c:	00000000 	nop
80002f90:	8c420014 	lw	v0,20(v0)
80002f94:	00000000 	nop
80002f98:	00402021 	move	a0,v0
80002f9c:	0c0004a1 	jal	80001284 <printhex>
80002fa0:	00000000 	nop
80002fa4:	3c028000 	lui	v0,0x8000
80002fa8:	24443b64 	addiu	a0,v0,15204
80002fac:	0c000489 	jal	80001224 <kprintf>
80002fb0:	00000000 	nop
80002fb4:	3c028000 	lui	v0,0x8000
80002fb8:	24443b90 	addiu	a0,v0,15248
80002fbc:	0c000489 	jal	80001224 <kprintf>
80002fc0:	00000000 	nop
80002fc4:	8fc20018 	lw	v0,24(s8)
80002fc8:	00000000 	nop
80002fcc:	8c420000 	lw	v0,0(v0)
80002fd0:	00000000 	nop
80002fd4:	00402021 	move	a0,v0
80002fd8:	0c0004a1 	jal	80001284 <printhex>
80002fdc:	00000000 	nop
80002fe0:	3c028000 	lui	v0,0x8000
80002fe4:	24443b64 	addiu	a0,v0,15204
80002fe8:	0c000489 	jal	80001224 <kprintf>
80002fec:	00000000 	nop
80002ff0:	3c028000 	lui	v0,0x8000
80002ff4:	24443b9c 	addiu	a0,v0,15260
80002ff8:	0c000489 	jal	80001224 <kprintf>
80002ffc:	00000000 	nop
80003000:	8fc20018 	lw	v0,24(s8)
80003004:	00000000 	nop
80003008:	8c420004 	lw	v0,4(v0)
8000300c:	00000000 	nop
80003010:	00402021 	move	a0,v0
80003014:	0c0004a1 	jal	80001284 <printhex>
80003018:	00000000 	nop
8000301c:	3c028000 	lui	v0,0x8000
80003020:	24443b64 	addiu	a0,v0,15204
80003024:	0c000489 	jal	80001224 <kprintf>
80003028:	00000000 	nop
8000302c:	3c028000 	lui	v0,0x8000
80003030:	24443ba8 	addiu	a0,v0,15272
80003034:	0c000489 	jal	80001224 <kprintf>
80003038:	00000000 	nop
8000303c:	8fc20018 	lw	v0,24(s8)
80003040:	00000000 	nop
80003044:	8c420008 	lw	v0,8(v0)
80003048:	00000000 	nop
8000304c:	00402021 	move	a0,v0
80003050:	0c0004a1 	jal	80001284 <printhex>
80003054:	00000000 	nop
80003058:	3c028000 	lui	v0,0x8000
8000305c:	24443b64 	addiu	a0,v0,15204
80003060:	0c000489 	jal	80001224 <kprintf>
80003064:	00000000 	nop
80003068:	3c028000 	lui	v0,0x8000
8000306c:	24443bb4 	addiu	a0,v0,15284
80003070:	0c000489 	jal	80001224 <kprintf>
80003074:	00000000 	nop
80003078:	8fc20018 	lw	v0,24(s8)
8000307c:	00000000 	nop
80003080:	8c420090 	lw	v0,144(v0)
80003084:	00000000 	nop
80003088:	00402021 	move	a0,v0
8000308c:	0c0004a1 	jal	80001284 <printhex>
80003090:	00000000 	nop
80003094:	3c028000 	lui	v0,0x8000
80003098:	24443b64 	addiu	a0,v0,15204
8000309c:	0c000489 	jal	80001224 <kprintf>
800030a0:	00000000 	nop
800030a4:	8fc40018 	lw	a0,24(s8)
800030a8:	0c000b83 	jal	80002e0c <trap_in_kernel>
800030ac:	00000000 	nop
800030b0:	14400007 	bnez	v0,800030d0 <print_trapframe+0x1b8>
800030b4:	00000000 	nop
800030b8:	3c028000 	lui	v0,0x8000
800030bc:	24443bbc 	addiu	a0,v0,15292
800030c0:	0c000489 	jal	80001224 <kprintf>
800030c4:	00000000 	nop
800030c8:	10000005 	b	800030e0 <print_trapframe+0x1c8>
800030cc:	00000000 	nop
800030d0:	3c028000 	lui	v0,0x8000
800030d4:	24443bd0 	addiu	a0,v0,15312
800030d8:	0c000489 	jal	80001224 <kprintf>
800030dc:	00000000 	nop
800030e0:	8fc20018 	lw	v0,24(s8)
800030e4:	00000000 	nop
800030e8:	8c420008 	lw	v0,8(v0)
800030ec:	00000000 	nop
800030f0:	3042007c 	andi	v0,v0,0x7c
800030f4:	00021082 	srl	v0,v0,0x2
800030f8:	00402021 	move	a0,v0
800030fc:	0c000b6a 	jal	80002da8 <trapname>
80003100:	00000000 	nop
80003104:	00402021 	move	a0,v0
80003108:	0c000489 	jal	80001224 <kprintf>
8000310c:	00000000 	nop
80003110:	2404000a 	li	a0,10
80003114:	0c000529 	jal	800014a4 <kputchar>
80003118:	00000000 	nop
8000311c:	00000000 	nop
80003120:	03c0e821 	move	sp,s8
80003124:	8fbf0014 	lw	ra,20(sp)
80003128:	8fbe0010 	lw	s8,16(sp)
8000312c:	27bd0018 	addiu	sp,sp,24
80003130:	03e00008 	jr	ra
80003134:	00000000 	nop

80003138 <interrupt_handler>:
80003138:	27bdffe0 	addiu	sp,sp,-32
8000313c:	afbf001c 	sw	ra,28(sp)
80003140:	afbe0018 	sw	s8,24(sp)
80003144:	03a0f021 	move	s8,sp
80003148:	afc40020 	sw	a0,32(s8)
8000314c:	afc00010 	sw	zero,16(s8)
80003150:	1000002b 	b	80003200 <interrupt_handler+0xc8>
80003154:	00000000 	nop
80003158:	8fc20020 	lw	v0,32(s8)
8000315c:	00000000 	nop
80003160:	8c420008 	lw	v0,8(v0)
80003164:	8fc30010 	lw	v1,16(s8)
80003168:	00000000 	nop
8000316c:	24630008 	addiu	v1,v1,8
80003170:	24040001 	li	a0,1
80003174:	00641804 	sllv	v1,a0,v1
80003178:	00431024 	and	v0,v0,v1
8000317c:	1040001c 	beqz	v0,800031f0 <interrupt_handler+0xb8>
80003180:	00000000 	nop
80003184:	8fc20010 	lw	v0,16(s8)
80003188:	24030004 	li	v1,4
8000318c:	10430009 	beq	v0,v1,800031b4 <interrupt_handler+0x7c>
80003190:	00000000 	nop
80003194:	24030007 	li	v1,7
80003198:	1443000b 	bne	v0,v1,800031c8 <interrupt_handler+0x90>
8000319c:	00000000 	nop
800031a0:	00002021 	move	a0,zero
800031a4:	0c00078f 	jal	80001e3c <clock_int_handler>
800031a8:	00000000 	nop
800031ac:	10000010 	b	800031f0 <interrupt_handler+0xb8>
800031b0:	00000000 	nop
800031b4:	00002021 	move	a0,zero
800031b8:	0c000897 	jal	8000225c <serial_int_handler>
800031bc:	00000000 	nop
800031c0:	1000000b 	b	800031f0 <interrupt_handler+0xb8>
800031c4:	00000000 	nop
800031c8:	8fc40020 	lw	a0,32(s8)
800031cc:	0c000bc6 	jal	80002f18 <print_trapframe>
800031d0:	00000000 	nop
800031d4:	3c028000 	lui	v0,0x8000
800031d8:	24463be4 	addiu	a2,v0,15332
800031dc:	24050067 	li	a1,103
800031e0:	3c028000 	lui	v0,0x8000
800031e4:	24443bf8 	addiu	a0,v0,15352
800031e8:	0c000afd 	jal	80002bf4 <__panic>
800031ec:	00000000 	nop
800031f0:	8fc20010 	lw	v0,16(s8)
800031f4:	00000000 	nop
800031f8:	24420001 	addiu	v0,v0,1
800031fc:	afc20010 	sw	v0,16(s8)
80003200:	8fc20010 	lw	v0,16(s8)
80003204:	00000000 	nop
80003208:	28420008 	slti	v0,v0,8
8000320c:	1440ffd2 	bnez	v0,80003158 <interrupt_handler+0x20>
80003210:	00000000 	nop
80003214:	00000000 	nop
80003218:	03c0e821 	move	sp,s8
8000321c:	8fbf001c 	lw	ra,28(sp)
80003220:	8fbe0018 	lw	s8,24(sp)
80003224:	27bd0020 	addiu	sp,sp,32
80003228:	03e00008 	jr	ra
8000322c:	00000000 	nop

80003230 <trap_dispatch>:
80003230:	27bdffe0 	addiu	sp,sp,-32
80003234:	afbf001c 	sw	ra,28(sp)
80003238:	afbe0018 	sw	s8,24(sp)
8000323c:	03a0f021 	move	s8,sp
80003240:	afc40020 	sw	a0,32(s8)
80003244:	8fc20020 	lw	v0,32(s8)
80003248:	00000000 	nop
8000324c:	8c420008 	lw	v0,8(v0)
80003250:	00000000 	nop
80003254:	3042007c 	andi	v0,v0,0x7c
80003258:	00021082 	srl	v0,v0,0x2
8000325c:	afc20010 	sw	v0,16(s8)
80003260:	8fc20010 	lw	v0,16(s8)
80003264:	00000000 	nop
80003268:	28430006 	slti	v1,v0,6
8000326c:	10600008 	beqz	v1,80003290 <trap_dispatch+0x60>
80003270:	00000000 	nop
80003274:	28430004 	slti	v1,v0,4
80003278:	10600019 	beqz	v1,800032e0 <trap_dispatch+0xb0>
8000327c:	00000000 	nop
80003280:	10400008 	beqz	v0,800032a4 <trap_dispatch+0x74>
80003284:	00000000 	nop
80003288:	10000029 	b	80003330 <trap_dispatch+0x100>
8000328c:	00000000 	nop
80003290:	2403000a 	li	v1,10
80003294:	10430008 	beq	v0,v1,800032b8 <trap_dispatch+0x88>
80003298:	00000000 	nop
8000329c:	10000024 	b	80003330 <trap_dispatch+0x100>
800032a0:	00000000 	nop
800032a4:	8fc40020 	lw	a0,32(s8)
800032a8:	0c000c4e 	jal	80003138 <interrupt_handler>
800032ac:	00000000 	nop
800032b0:	10000029 	b	80003358 <trap_dispatch+0x128>
800032b4:	00000000 	nop
800032b8:	8fc40020 	lw	a0,32(s8)
800032bc:	0c000bc6 	jal	80002f18 <print_trapframe>
800032c0:	00000000 	nop
800032c4:	3c028000 	lui	v0,0x8000
800032c8:	24463c0c 	addiu	a2,v0,15372
800032cc:	24050077 	li	a1,119
800032d0:	3c028000 	lui	v0,0x8000
800032d4:	24443bf8 	addiu	a0,v0,15352
800032d8:	0c000afd 	jal	80002bf4 <__panic>
800032dc:	00000000 	nop
800032e0:	8fc40020 	lw	a0,32(s8)
800032e4:	0c000b83 	jal	80002e0c <trap_in_kernel>
800032e8:	00000000 	nop
800032ec:	1040000b 	beqz	v0,8000331c <trap_dispatch+0xec>
800032f0:	00000000 	nop
800032f4:	8fc40020 	lw	a0,32(s8)
800032f8:	0c000bc6 	jal	80002f18 <print_trapframe>
800032fc:	00000000 	nop
80003300:	3c028000 	lui	v0,0x8000
80003304:	24463c2c 	addiu	a2,v0,15404
80003308:	2405007d 	li	a1,125
8000330c:	3c028000 	lui	v0,0x8000
80003310:	24443bf8 	addiu	a0,v0,15352
80003314:	0c000afd 	jal	80002bf4 <__panic>
80003318:	00000000 	nop
8000331c:	8fc40020 	lw	a0,32(s8)
80003320:	0c000bc6 	jal	80002f18 <print_trapframe>
80003324:	00000000 	nop
80003328:	1000000b 	b	80003358 <trap_dispatch+0x128>
8000332c:	00000000 	nop
80003330:	8fc40020 	lw	a0,32(s8)
80003334:	0c000bc6 	jal	80002f18 <print_trapframe>
80003338:	00000000 	nop
8000333c:	3c028000 	lui	v0,0x8000
80003340:	24463c3c 	addiu	a2,v0,15420
80003344:	24050084 	li	a1,132
80003348:	3c028000 	lui	v0,0x8000
8000334c:	24443bf8 	addiu	a0,v0,15352
80003350:	0c000afd 	jal	80002bf4 <__panic>
80003354:	00000000 	nop
80003358:	00000000 	nop
8000335c:	03c0e821 	move	sp,s8
80003360:	8fbf001c 	lw	ra,28(sp)
80003364:	8fbe0018 	lw	s8,24(sp)
80003368:	27bd0020 	addiu	sp,sp,32
8000336c:	03e00008 	jr	ra
80003370:	00000000 	nop

80003374 <mips_trap>:
80003374:	27bdffe8 	addiu	sp,sp,-24
80003378:	afbf0014 	sw	ra,20(sp)
8000337c:	afbe0010 	sw	s8,16(sp)
80003380:	03a0f021 	move	s8,sp
80003384:	afc40018 	sw	a0,24(s8)
80003388:	8fc40018 	lw	a0,24(s8)
8000338c:	0c000c8c 	jal	80003230 <trap_dispatch>
80003390:	00000000 	nop
80003394:	00000000 	nop
80003398:	03c0e821 	move	sp,s8
8000339c:	8fbf0014 	lw	ra,20(sp)
800033a0:	8fbe0010 	lw	s8,16(sp)
800033a4:	27bd0018 	addiu	sp,sp,24
800033a8:	03e00008 	jr	ra
800033ac:	00000000 	nop

800033b0 <ramExcHandle_tlbmiss>:
800033b0:	10000003 00000000                       ........

800033b8 <ramReserved>:
800033b8:	1000ffff 00000000                       ........

800033c0 <ramExcHandle_general>:
800033c0:	03a0d821 	move	k1,sp
800033c4:	401a6800 	mfc0	k0,c0_cause
800033c8:	08000cf4 	j	800033d0 <common_exception>
800033cc:	00000000 	nop

800033d0 <common_exception>:
800033d0:	27bdff5c 	addiu	sp,sp,-164
800033d4:	afbf00a0 	sw	ra,160(sp)
800033d8:	afbe009c 	sw	s8,156(sp)
800033dc:	afbd0098 	sw	sp,152(sp)
800033e0:	afbc0094 	sw	gp,148(sp)
800033e4:	afbb0090 	sw	k1,144(sp)
800033e8:	afba008c 	sw	k0,140(sp)
800033ec:	afbb0098 	sw	k1,152(sp)
800033f0:	00000000 	nop
800033f4:	401b7000 	mfc0	k1,c0_epc
800033f8:	afbb00a0 	sw	k1,160(sp)
800033fc:	afb90088 	sw	t9,136(sp)
80003400:	afb80084 	sw	t8,132(sp)
80003404:	afb70080 	sw	s7,128(sp)
80003408:	afb6007c 	sw	s6,124(sp)
8000340c:	afb50078 	sw	s5,120(sp)
80003410:	afb40074 	sw	s4,116(sp)
80003414:	afb30070 	sw	s3,112(sp)
80003418:	afb2006c 	sw	s2,108(sp)
8000341c:	afb10068 	sw	s1,104(sp)
80003420:	afb00064 	sw	s0,100(sp)
80003424:	afaf0060 	sw	t7,96(sp)
80003428:	afae005c 	sw	t6,92(sp)
8000342c:	afad0058 	sw	t5,88(sp)
80003430:	afac0054 	sw	t4,84(sp)
80003434:	afab0050 	sw	t3,80(sp)
80003438:	afaa004c 	sw	t2,76(sp)
8000343c:	afa90048 	sw	t1,72(sp)
80003440:	afa80044 	sw	t0,68(sp)
80003444:	afa70040 	sw	a3,64(sp)
80003448:	afa6003c 	sw	a2,60(sp)
8000344c:	afa50038 	sw	a1,56(sp)
80003450:	afa40034 	sw	a0,52(sp)
80003454:	afa30030 	sw	v1,48(sp)
80003458:	afa2002c 	sw	v0,44(sp)
8000345c:	afa10028 	sw	at,40(sp)
80003460:	afbf0024 	sw	ra,36(sp)
80003464:	00004010 	mfhi	t0
80003468:	00004812 	mflo	t1
8000346c:	afa80020 	sw	t0,32(sp)
80003470:	afa9001c 	sw	t1,28(sp)
80003474:	afba0018 	sw	k0,24(sp)
80003478:	40096000 	mfc0	t1,c0_status
8000347c:	afa90014 	sw	t1,20(sp)
80003480:	400a4000 	mfc0	t2,c0_badvaddr
80003484:	afaa0010 	sw	t2,16(sp)
80003488:	afa0000c 	sw	zero,12(sp)
8000348c:	2408ffe4 	li	t0,-28
80003490:	01284824 	and	t1,t1,t0
80003494:	40896000 	mtc0	t1,c0_status
80003498:	27a40010 	addiu	a0,sp,16
8000349c:	3c198000 	lui	t9,0x8000
800034a0:	27393374 	addiu	t9,t9,13172
800034a4:	0320f809 	jalr	t9
800034a8:	00000000 	nop
800034ac:	00000000 	nop

800034b0 <exception_return>:
800034b0:	8fa80014 	lw	t0,20(sp)
800034b4:	35080002 	ori	t0,t0,0x2
800034b8:	00000000 	nop
800034bc:	40886000 	mtc0	t0,c0_status
800034c0:	8fa9001c 	lw	t1,28(sp)
800034c4:	8fa80020 	lw	t0,32(sp)
800034c8:	01200013 	mtlo	t1
800034cc:	01000011 	mthi	t0
800034d0:	8fbf0024 	lw	ra,36(sp)
800034d4:	8fa10028 	lw	at,40(sp)
800034d8:	8fa2002c 	lw	v0,44(sp)
800034dc:	8fa30030 	lw	v1,48(sp)
800034e0:	8fa40034 	lw	a0,52(sp)
800034e4:	8fa50038 	lw	a1,56(sp)
800034e8:	8fa6003c 	lw	a2,60(sp)
800034ec:	8fa70040 	lw	a3,64(sp)
800034f0:	8fa80044 	lw	t0,68(sp)
800034f4:	8fa90048 	lw	t1,72(sp)
800034f8:	8faa004c 	lw	t2,76(sp)
800034fc:	8fab0050 	lw	t3,80(sp)
80003500:	8fac0054 	lw	t4,84(sp)
80003504:	8fad0058 	lw	t5,88(sp)
80003508:	8fae005c 	lw	t6,92(sp)
8000350c:	8faf0060 	lw	t7,96(sp)
80003510:	8fb00064 	lw	s0,100(sp)
80003514:	8fb10068 	lw	s1,104(sp)
80003518:	8fb2006c 	lw	s2,108(sp)
8000351c:	8fb30070 	lw	s3,112(sp)
80003520:	8fb40074 	lw	s4,116(sp)
80003524:	8fb50078 	lw	s5,120(sp)
80003528:	8fb6007c 	lw	s6,124(sp)
8000352c:	8fb70080 	lw	s7,128(sp)
80003530:	8fb80084 	lw	t8,132(sp)
80003534:	8fb90088 	lw	t9,136(sp)
80003538:	8fbc0094 	lw	gp,148(sp)
8000353c:	8fbe009c 	lw	s8,156(sp)
80003540:	8fba00a0 	lw	k0,160(sp)
80003544:	8fbd0098 	lw	sp,152(sp)
80003548:	409a7000 	mtc0	k0,c0_epc
8000354c:	00000000 	nop
80003550:	42000018 	eret
80003554:	00000000 	nop

80003558 <forkrets>:
80003558:	249dfff0 	addiu	sp,a0,-16
8000355c:	1000ffd4 	b	800034b0 <exception_return>
80003560:	00000000 	nop
