
80000000 <_wrs_kernel_text_start>:
80000000:	10000003 	b	80000010 <reset>
80000004:	00000000 	nop

80000010 <reset>:
80000010:	0c000007 	jal	8000001c <reset+0xc>
80000014:	00000000 	nop
80000018:	8000b030 	lb	zero,-20432(zero)
8000001c:	8ffc0000 	lw	gp,0(ra)
80000020:	3c1d8000 	lui	sp,0x8000
80000024:	27bd3020 	addiu	sp,sp,12320
80000028:	3c088000 	lui	t0,0x8000
8000002c:	25083040 	addiu	t0,t0,12352
80000030:	3c098000 	lui	t1,0x8000
80000034:	25293050 	addiu	t1,t1,12368
80000038:	ad000000 	sw	zero,0(t0)
8000003c:	25080004 	addiu	t0,t0,4
80000040:	0109582a 	slt	t3,t0,t1
80000044:	1d60fffc 	bgtz	t3,80000038 <reset+0x28>
80000048:	00000000 	nop
8000004c:	27bdfff0 	addiu	sp,sp,-16
80000050:	3c198000 	lui	t9,0x8000
80000054:	273903a8 	addiu	t9,t9,936
80000058:	0320f809 	jalr	t9
8000005c:	00000000 	nop
80000060:	0401ffff 	b	80000060 <reset+0x50>
80000064:	00000000 	nop
	...

80000070 <delay>:
80000070:	27bdfff8 	addiu	sp,sp,-8
80000074:	afbe0004 	sw	s8,4(sp)
80000078:	03a0f021 	move	s8,sp
8000007c:	00000000 	nop
80000080:	03c0e821 	move	sp,s8
80000084:	8fbe0004 	lw	s8,4(sp)
80000088:	27bd0008 	addiu	sp,sp,8
8000008c:	03e00008 	jr	ra
80000090:	00000000 	nop

80000094 <serial_init>:
80000094:	27bdfff0 	addiu	sp,sp,-16
80000098:	afbe000c 	sw	s8,12(sp)
8000009c:	03a0f021 	move	s8,sp
800000a0:	3c02bfd0 	lui	v0,0xbfd0
800000a4:	344203f8 	ori	v0,v0,0x3f8
800000a8:	afc20000 	sw	v0,0(s8)
800000ac:	3c028000 	lui	v0,0x8000
800000b0:	8c423040 	lw	v0,12352(v0)
800000b4:	00000000 	nop
800000b8:	14400006 	bnez	v0,800000d4 <serial_init+0x40>
800000bc:	00000000 	nop
800000c0:	3c028000 	lui	v0,0x8000
800000c4:	24030001 	li	v1,1
800000c8:	ac433040 	sw	v1,12352(v0)
800000cc:	10000002 	b	800000d8 <serial_init+0x44>
800000d0:	00000000 	nop
800000d4:	00000000 	nop
800000d8:	03c0e821 	move	sp,s8
800000dc:	8fbe000c 	lw	s8,12(sp)
800000e0:	27bd0010 	addiu	sp,sp,16
800000e4:	03e00008 	jr	ra
800000e8:	00000000 	nop

800000ec <serial_putc_sub>:
800000ec:	27bdffd8 	addiu	sp,sp,-40
800000f0:	afbe0024 	sw	s8,36(sp)
800000f4:	03a0f021 	move	s8,sp
800000f8:	afc40028 	sw	a0,40(s8)
800000fc:	00000000 	nop
80000100:	3c02bfd0 	lui	v0,0xbfd0
80000104:	344203fc 	ori	v0,v0,0x3fc
80000108:	afc2000c 	sw	v0,12(s8)
8000010c:	8fc2000c 	lw	v0,12(s8)
80000110:	00000000 	nop
80000114:	8c420000 	lw	v0,0(v0)
80000118:	00000000 	nop
8000011c:	afc20010 	sw	v0,16(s8)
80000120:	8fc20010 	lw	v0,16(s8)
80000124:	00000000 	nop
80000128:	30420001 	andi	v0,v0,0x1
8000012c:	1040fff4 	beqz	v0,80000100 <serial_putc_sub+0x14>
80000130:	00000000 	nop
80000134:	24020074 	li	v0,116
80000138:	304200ff 	andi	v0,v0,0xff
8000013c:	3c03bfd0 	lui	v1,0xbfd0
80000140:	346303f8 	ori	v1,v1,0x3f8
80000144:	afc30000 	sw	v1,0(s8)
80000148:	afc20014 	sw	v0,20(s8)
8000014c:	8fc20000 	lw	v0,0(s8)
80000150:	8fc30014 	lw	v1,20(s8)
80000154:	00000000 	nop
80000158:	ac430000 	sw	v1,0(v0)
8000015c:	00000000 	nop
80000160:	3c02bfd0 	lui	v0,0xbfd0
80000164:	344203fc 	ori	v0,v0,0x3fc
80000168:	afc20004 	sw	v0,4(s8)
8000016c:	8fc20004 	lw	v0,4(s8)
80000170:	00000000 	nop
80000174:	8c420000 	lw	v0,0(v0)
80000178:	00000000 	nop
8000017c:	afc20018 	sw	v0,24(s8)
80000180:	8fc20018 	lw	v0,24(s8)
80000184:	00000000 	nop
80000188:	30420001 	andi	v0,v0,0x1
8000018c:	1040fff4 	beqz	v0,80000160 <serial_putc_sub+0x74>
80000190:	00000000 	nop
80000194:	8fc20028 	lw	v0,40(s8)
80000198:	00000000 	nop
8000019c:	304200ff 	andi	v0,v0,0xff
800001a0:	3c03bfd0 	lui	v1,0xbfd0
800001a4:	346303f8 	ori	v1,v1,0x3f8
800001a8:	afc30008 	sw	v1,8(s8)
800001ac:	afc2001c 	sw	v0,28(s8)
800001b0:	8fc20008 	lw	v0,8(s8)
800001b4:	8fc3001c 	lw	v1,28(s8)
800001b8:	00000000 	nop
800001bc:	ac430000 	sw	v1,0(v0)
800001c0:	00000000 	nop
800001c4:	03c0e821 	move	sp,s8
800001c8:	8fbe0024 	lw	s8,36(sp)
800001cc:	27bd0028 	addiu	sp,sp,40
800001d0:	03e00008 	jr	ra
800001d4:	00000000 	nop

800001d8 <serial_putc>:
800001d8:	27bdffe8 	addiu	sp,sp,-24
800001dc:	afbf0014 	sw	ra,20(sp)
800001e0:	afbe0010 	sw	s8,16(sp)
800001e4:	03a0f021 	move	s8,sp
800001e8:	afc40018 	sw	a0,24(s8)
800001ec:	8fc30018 	lw	v1,24(s8)
800001f0:	24020008 	li	v0,8
800001f4:	1462000c 	bne	v1,v0,80000228 <serial_putc+0x50>
800001f8:	00000000 	nop
800001fc:	24040008 	li	a0,8
80000200:	0c00003b 	jal	800000ec <serial_putc_sub>
80000204:	00000000 	nop
80000208:	24040020 	li	a0,32
8000020c:	0c00003b 	jal	800000ec <serial_putc_sub>
80000210:	00000000 	nop
80000214:	24040008 	li	a0,8
80000218:	0c00003b 	jal	800000ec <serial_putc_sub>
8000021c:	00000000 	nop
80000220:	10000004 	b	80000234 <serial_putc+0x5c>
80000224:	00000000 	nop
80000228:	8fc40018 	lw	a0,24(s8)
8000022c:	0c00003b 	jal	800000ec <serial_putc_sub>
80000230:	00000000 	nop
80000234:	00000000 	nop
80000238:	03c0e821 	move	sp,s8
8000023c:	8fbf0014 	lw	ra,20(sp)
80000240:	8fbe0010 	lw	s8,16(sp)
80000244:	27bd0018 	addiu	sp,sp,24
80000248:	03e00008 	jr	ra
8000024c:	00000000 	nop

80000250 <serial_proc_data>:
80000250:	27bdffe0 	addiu	sp,sp,-32
80000254:	afbe001c 	sw	s8,28(sp)
80000258:	03a0f021 	move	s8,sp
8000025c:	3c02bfd0 	lui	v0,0xbfd0
80000260:	344203fc 	ori	v0,v0,0x3fc
80000264:	afc2000c 	sw	v0,12(s8)
80000268:	8fc2000c 	lw	v0,12(s8)
8000026c:	00000000 	nop
80000270:	8c420000 	lw	v0,0(v0)
80000274:	00000000 	nop
80000278:	afc20010 	sw	v0,16(s8)
8000027c:	8fc20010 	lw	v0,16(s8)
80000280:	00000000 	nop
80000284:	afc20008 	sw	v0,8(s8)
80000288:	8fc20008 	lw	v0,8(s8)
8000028c:	00000000 	nop
80000290:	30420002 	andi	v0,v0,0x2
80000294:	14400004 	bnez	v0,800002a8 <serial_proc_data+0x58>
80000298:	00000000 	nop
8000029c:	2402ffff 	li	v0,-1
800002a0:	10000014 	b	800002f4 <serial_proc_data+0xa4>
800002a4:	00000000 	nop
800002a8:	3c02bfd0 	lui	v0,0xbfd0
800002ac:	344203f8 	ori	v0,v0,0x3f8
800002b0:	afc20004 	sw	v0,4(s8)
800002b4:	8fc20004 	lw	v0,4(s8)
800002b8:	00000000 	nop
800002bc:	8c420000 	lw	v0,0(v0)
800002c0:	00000000 	nop
800002c4:	afc20014 	sw	v0,20(s8)
800002c8:	8fc20014 	lw	v0,20(s8)
800002cc:	00000000 	nop
800002d0:	304200ff 	andi	v0,v0,0xff
800002d4:	afc20000 	sw	v0,0(s8)
800002d8:	8fc30000 	lw	v1,0(s8)
800002dc:	2402007f 	li	v0,127
800002e0:	14620003 	bne	v1,v0,800002f0 <serial_proc_data+0xa0>
800002e4:	00000000 	nop
800002e8:	24020008 	li	v0,8
800002ec:	afc20000 	sw	v0,0(s8)
800002f0:	8fc20000 	lw	v0,0(s8)
800002f4:	03c0e821 	move	sp,s8
800002f8:	8fbe001c 	lw	s8,28(sp)
800002fc:	27bd0020 	addiu	sp,sp,32
80000300:	03e00008 	jr	ra
80000304:	00000000 	nop

80000308 <cons_init>:
80000308:	27bdffe8 	addiu	sp,sp,-24
8000030c:	afbf0014 	sw	ra,20(sp)
80000310:	afbe0010 	sw	s8,16(sp)
80000314:	03a0f021 	move	s8,sp
80000318:	0c000025 	jal	80000094 <serial_init>
8000031c:	00000000 	nop
80000320:	00000000 	nop
80000324:	03c0e821 	move	sp,s8
80000328:	8fbf0014 	lw	ra,20(sp)
8000032c:	8fbe0010 	lw	s8,16(sp)
80000330:	27bd0018 	addiu	sp,sp,24
80000334:	03e00008 	jr	ra
80000338:	00000000 	nop

8000033c <cons_putc>:
8000033c:	27bdffe8 	addiu	sp,sp,-24
80000340:	afbf0014 	sw	ra,20(sp)
80000344:	afbe0010 	sw	s8,16(sp)
80000348:	03a0f021 	move	s8,sp
8000034c:	afc40018 	sw	a0,24(s8)
80000350:	8fc40018 	lw	a0,24(s8)
80000354:	0c000076 	jal	800001d8 <serial_putc>
80000358:	00000000 	nop
8000035c:	00000000 	nop
80000360:	03c0e821 	move	sp,s8
80000364:	8fbf0014 	lw	ra,20(sp)
80000368:	8fbe0010 	lw	s8,16(sp)
8000036c:	27bd0018 	addiu	sp,sp,24
80000370:	03e00008 	jr	ra
80000374:	00000000 	nop

80000378 <cons_getc>:
80000378:	27bdffe8 	addiu	sp,sp,-24
8000037c:	afbf0014 	sw	ra,20(sp)
80000380:	afbe0010 	sw	s8,16(sp)
80000384:	03a0f021 	move	s8,sp
80000388:	0c000094 	jal	80000250 <serial_proc_data>
8000038c:	00000000 	nop
80000390:	03c0e821 	move	sp,s8
80000394:	8fbf0014 	lw	ra,20(sp)
80000398:	8fbe0010 	lw	s8,16(sp)
8000039c:	27bd0018 	addiu	sp,sp,24
800003a0:	03e00008 	jr	ra
800003a4:	00000000 	nop

800003a8 <kern_init>:
800003a8:	27bdffe0 	addiu	sp,sp,-32
800003ac:	afbf001c 	sw	ra,28(sp)
800003b0:	afbe0018 	sw	s8,24(sp)
800003b4:	03a0f021 	move	s8,sp
800003b8:	0c0000c2 	jal	80000308 <cons_init>
800003bc:	00000000 	nop
800003c0:	24040048 	li	a0,72
800003c4:	0c0000cf 	jal	8000033c <cons_putc>
800003c8:	00000000 	nop
800003cc:	24040065 	li	a0,101
800003d0:	0c0000cf 	jal	8000033c <cons_putc>
800003d4:	00000000 	nop
800003d8:	2404006c 	li	a0,108
800003dc:	0c0000cf 	jal	8000033c <cons_putc>
800003e0:	00000000 	nop
800003e4:	2404006c 	li	a0,108
800003e8:	0c0000cf 	jal	8000033c <cons_putc>
800003ec:	00000000 	nop
800003f0:	2404006f 	li	a0,111
800003f4:	0c0000cf 	jal	8000033c <cons_putc>
800003f8:	00000000 	nop
800003fc:	24040020 	li	a0,32
80000400:	0c0000cf 	jal	8000033c <cons_putc>
80000404:	00000000 	nop
80000408:	24040077 	li	a0,119
8000040c:	0c0000cf 	jal	8000033c <cons_putc>
80000410:	00000000 	nop
80000414:	2404006f 	li	a0,111
80000418:	0c0000cf 	jal	8000033c <cons_putc>
8000041c:	00000000 	nop
80000420:	24040072 	li	a0,114
80000424:	0c0000cf 	jal	8000033c <cons_putc>
80000428:	00000000 	nop
8000042c:	2404006c 	li	a0,108
80000430:	0c0000cf 	jal	8000033c <cons_putc>
80000434:	00000000 	nop
80000438:	24040064 	li	a0,100
8000043c:	0c0000cf 	jal	8000033c <cons_putc>
80000440:	00000000 	nop
80000444:	0c0000de 	jal	80000378 <cons_getc>
80000448:	00000000 	nop
8000044c:	afc20010 	sw	v0,16(s8)
80000450:	8fc40010 	lw	a0,16(s8)
80000454:	0c0000cf 	jal	8000033c <cons_putc>
80000458:	00000000 	nop
8000045c:	2404000a 	li	a0,10
80000460:	0c0000cf 	jal	8000033c <cons_putc>
80000464:	00000000 	nop
80000468:	1000ffff 	b	80000468 <kern_init+0xc0>
8000046c:	00000000 	nop
